ARM GAS  C:\Users\owono\AppData\Local\Temp\ccFLv7mf.s 			page 1


   1              		.syntax unified
   2              		.cpu cortex-m0
   3              		.fpu softvfp
   4              		.eabi_attribute 20, 1
   5              		.eabi_attribute 21, 1
   6              		.eabi_attribute 23, 3
   7              		.eabi_attribute 24, 1
   8              		.eabi_attribute 25, 1
   9              		.eabi_attribute 26, 1
  10              		.eabi_attribute 30, 1
  11              		.eabi_attribute 34, 0
  12              		.eabi_attribute 18, 4
  13              		.thumb
  14              		.syntax unified
  15              		.file	"ble_eventHandler.c"
  16              		.text
  17              	.Ltext0:
  18              		.cfi_sections	.debug_frame
  19              		.section	.text.CyBle_GattDisconnectEventHandler,"ax",%progbits
  20              		.align	2
  21              		.code	16
  22              		.thumb_func
  23              		.type	CyBle_GattDisconnectEventHandler, %function
  24              	CyBle_GattDisconnectEventHandler:
  25              	.LFB4:
  26              		.file 1 "Generated_Source\\PSoC4\\ble_eventHandler.c"
   1:Generated_Source\PSoC4/ble_eventHandler.c **** /***************************************************************************//**
   2:Generated_Source\PSoC4/ble_eventHandler.c **** * \file CYBLE_eventHandler.c
   3:Generated_Source\PSoC4/ble_eventHandler.c **** * \version 3.30
   4:Generated_Source\PSoC4/ble_eventHandler.c **** * 
   5:Generated_Source\PSoC4/ble_eventHandler.c **** * \brief
   6:Generated_Source\PSoC4/ble_eventHandler.c **** *  This file contains the source code for the Event Handler State Machine
   7:Generated_Source\PSoC4/ble_eventHandler.c **** *  of the BLE Component.
   8:Generated_Source\PSoC4/ble_eventHandler.c **** * 
   9:Generated_Source\PSoC4/ble_eventHandler.c **** ********************************************************************************
  10:Generated_Source\PSoC4/ble_eventHandler.c **** * \copyright
  11:Generated_Source\PSoC4/ble_eventHandler.c **** * Copyright 2014-2016, Cypress Semiconductor Corporation.  All rights reserved.
  12:Generated_Source\PSoC4/ble_eventHandler.c **** * You may use this file only in accordance with the license, terms, conditions,
  13:Generated_Source\PSoC4/ble_eventHandler.c **** * disclaimers, and limitations in the end user license agreement accompanying
  14:Generated_Source\PSoC4/ble_eventHandler.c **** * the software package with which this file was provided.
  15:Generated_Source\PSoC4/ble_eventHandler.c **** *******************************************************************************/
  16:Generated_Source\PSoC4/ble_eventHandler.c **** 
  17:Generated_Source\PSoC4/ble_eventHandler.c **** #include "ble_eventHandler.h"
  18:Generated_Source\PSoC4/ble_eventHandler.c **** 
  19:Generated_Source\PSoC4/ble_eventHandler.c **** 
  20:Generated_Source\PSoC4/ble_eventHandler.c **** /***************************************
  21:Generated_Source\PSoC4/ble_eventHandler.c **** * Private Function Prototypes
  22:Generated_Source\PSoC4/ble_eventHandler.c **** ***************************************/
  23:Generated_Source\PSoC4/ble_eventHandler.c **** 
  24:Generated_Source\PSoC4/ble_eventHandler.c **** static void CyBle_GattDisconnectEventHandler(void);
  25:Generated_Source\PSoC4/ble_eventHandler.c **** static void CyBle_TimeOutEventHandler(const CYBLE_TO_REASON_CODE_T *eventParam);
  26:Generated_Source\PSoC4/ble_eventHandler.c **** static void CyBle_GattConnectReqHandler(void);
  27:Generated_Source\PSoC4/ble_eventHandler.c **** static void CyBle_L2Cap_ConnParamUpdateRspEventHandler(uint16 response);
  28:Generated_Source\PSoC4/ble_eventHandler.c **** static void CyBle_GapConnUpdateCompleteEventHandler(const CYBLE_GAP_CONN_PARAM_UPDATED_IN_CONTROLLE
  29:Generated_Source\PSoC4/ble_eventHandler.c **** 
  30:Generated_Source\PSoC4/ble_eventHandler.c **** 
  31:Generated_Source\PSoC4/ble_eventHandler.c **** #if (CYBLE_GATT_ROLE_SERVER)
ARM GAS  C:\Users\owono\AppData\Local\Temp\ccFLv7mf.s 			page 2


  32:Generated_Source\PSoC4/ble_eventHandler.c **** 
  33:Generated_Source\PSoC4/ble_eventHandler.c **** static void CyBle_WriteReqHandler(CYBLE_GATTS_WRITE_REQ_PARAM_T *eventParam);
  34:Generated_Source\PSoC4/ble_eventHandler.c **** static void CyBle_ValueConfirmation(const CYBLE_CONN_HANDLE_T *eventParam);
  35:Generated_Source\PSoC4/ble_eventHandler.c **** 
  36:Generated_Source\PSoC4/ble_eventHandler.c **** #endif /* CYBLE_GATT_ROLE_SERVER */
  37:Generated_Source\PSoC4/ble_eventHandler.c **** 
  38:Generated_Source\PSoC4/ble_eventHandler.c **** #if (CYBLE_GATT_ROLE_CLIENT)
  39:Generated_Source\PSoC4/ble_eventHandler.c **** 
  40:Generated_Source\PSoC4/ble_eventHandler.c **** static void CyBle_GapcDiscoverCharacteristicsEventHandler(CYBLE_DISC_CHAR_INFO_T *discCharInfo);
  41:Generated_Source\PSoC4/ble_eventHandler.c **** static CYBLE_GATT_ATTR_HANDLE_RANGE_T CyBle_GetCharRange(void);
  42:Generated_Source\PSoC4/ble_eventHandler.c **** static void CyBle_GattcWriteResponseEventHandler(const CYBLE_CONN_HANDLE_T *eventParam);
  43:Generated_Source\PSoC4/ble_eventHandler.c **** static void CyBle_NotificationEventHandler(CYBLE_GATTC_HANDLE_VALUE_NTF_PARAM_T *eventParam);
  44:Generated_Source\PSoC4/ble_eventHandler.c **** static void CyBle_IndicationEventHandler(CYBLE_GATTC_HANDLE_VALUE_IND_PARAM_T *eventParam);
  45:Generated_Source\PSoC4/ble_eventHandler.c **** static void CyBle_ReadResponseEventHandler(CYBLE_GATTC_READ_RSP_PARAM_T *eventParam);
  46:Generated_Source\PSoC4/ble_eventHandler.c **** static void CyBle_ReadMultipleResponseEventHandler(CYBLE_GATTC_READ_RSP_PARAM_T *eventParam);
  47:Generated_Source\PSoC4/ble_eventHandler.c **** 
  48:Generated_Source\PSoC4/ble_eventHandler.c **** #endif /* CYBLE_GATT_ROLE_CLIENT */
  49:Generated_Source\PSoC4/ble_eventHandler.c **** 
  50:Generated_Source\PSoC4/ble_eventHandler.c **** 
  51:Generated_Source\PSoC4/ble_eventHandler.c **** /***************************************
  52:Generated_Source\PSoC4/ble_eventHandler.c **** * Global Variables
  53:Generated_Source\PSoC4/ble_eventHandler.c **** ***************************************/
  54:Generated_Source\PSoC4/ble_eventHandler.c **** 
  55:Generated_Source\PSoC4/ble_eventHandler.c **** /* This global variable is initialized after connection with peer device, 
  56:Generated_Source\PSoC4/ble_eventHandler.c ****    after CYBLE_EVT_GATT_CONNECT_IND event, and could be used by application code
  57:Generated_Source\PSoC4/ble_eventHandler.c ****    to send data to peer device. 
  58:Generated_Source\PSoC4/ble_eventHandler.c **** */
  59:Generated_Source\PSoC4/ble_eventHandler.c **** CYBLE_CONN_HANDLE_T cyBle_connHandle;
  60:Generated_Source\PSoC4/ble_eventHandler.c **** 
  61:Generated_Source\PSoC4/ble_eventHandler.c **** volatile uint8 cyBle_eventHandlerFlag;
  62:Generated_Source\PSoC4/ble_eventHandler.c **** volatile uint8 cyBle_busyStatus;
  63:Generated_Source\PSoC4/ble_eventHandler.c **** 
  64:Generated_Source\PSoC4/ble_eventHandler.c **** const CYBLE_GAPS_T cyBle_gaps =
  65:Generated_Source\PSoC4/ble_eventHandler.c **** {
  66:Generated_Source\PSoC4/ble_eventHandler.c ****     0x0001u,    /* Handle of the GAP service */
  67:Generated_Source\PSoC4/ble_eventHandler.c ****     0x0003u,    /* Handle of the Device Name characteristic */
  68:Generated_Source\PSoC4/ble_eventHandler.c ****     0x0005u,    /* Handle of the Appearance characteristic */
  69:Generated_Source\PSoC4/ble_eventHandler.c ****     0x0007u,    /* Handle of the Peripheral Preferred Connection Parameters characteristic */
  70:Generated_Source\PSoC4/ble_eventHandler.c ****     0x0009u,    /* Handle of the Central Address Resolution characteristic */
  71:Generated_Source\PSoC4/ble_eventHandler.c ****     0x000Bu,    /* Handle of the Resolvable Private Address Only characteristic */
  72:Generated_Source\PSoC4/ble_eventHandler.c **** };
  73:Generated_Source\PSoC4/ble_eventHandler.c **** 
  74:Generated_Source\PSoC4/ble_eventHandler.c **** 
  75:Generated_Source\PSoC4/ble_eventHandler.c **** #if(CYBLE_GAP_ROLE_PERIPHERAL || CYBLE_GAP_ROLE_BROADCASTER) 
  76:Generated_Source\PSoC4/ble_eventHandler.c ****     uint8 cyBle_advertisingIntervalType;
  77:Generated_Source\PSoC4/ble_eventHandler.c **** #endif /* CYBLE_GAP_ROLE_PERIPHERAL || CYBLE_GAP_ROLE_BROADCASTER) */
  78:Generated_Source\PSoC4/ble_eventHandler.c **** 
  79:Generated_Source\PSoC4/ble_eventHandler.c **** #if(CYBLE_GAP_ROLE_CENTRAL || CYBLE_GAP_ROLE_OBSERVER) 
  80:Generated_Source\PSoC4/ble_eventHandler.c ****     uint8 cyBle_scanningIntervalType;
  81:Generated_Source\PSoC4/ble_eventHandler.c **** #endif /* CYBLE_GAP_ROLE_CENTRAL || CYBLE_GAP_ROLE_OBSERVER */
  82:Generated_Source\PSoC4/ble_eventHandler.c **** 
  83:Generated_Source\PSoC4/ble_eventHandler.c **** #if(CYBLE_GATT_ROLE_SERVER)
  84:Generated_Source\PSoC4/ble_eventHandler.c **** #if defined CYBLE_CTS_SERVER || defined CYBLE_ESS_SERVER
  85:Generated_Source\PSoC4/ble_eventHandler.c **** CYBLE_GATT_ERR_CODE_T cyBle_gattError;
  86:Generated_Source\PSoC4/ble_eventHandler.c **** #endif /* defined CYBLE_CTS_SERVER || defined CYBLE_ESS_SERVER */
  87:Generated_Source\PSoC4/ble_eventHandler.c **** #endif /* CYBLE_GATT_ROLE_SERVER */
  88:Generated_Source\PSoC4/ble_eventHandler.c **** 
ARM GAS  C:\Users\owono\AppData\Local\Temp\ccFLv7mf.s 			page 3


  89:Generated_Source\PSoC4/ble_eventHandler.c **** #if(CYBLE_GATT_ROLE_CLIENT)
  90:Generated_Source\PSoC4/ble_eventHandler.c **** uint8 cyBle_disCount; /* Counter for discovery procedures */
  91:Generated_Source\PSoC4/ble_eventHandler.c **** 
  92:Generated_Source\PSoC4/ble_eventHandler.c **** #ifdef CYBLE_CUSTOM_CLIENT
  93:Generated_Source\PSoC4/ble_eventHandler.c **** /* Discovery included service information, used for 128-bit UUID read response handle 
  94:Generated_Source\PSoC4/ble_eventHandler.c ****    and for continue discovery. 
  95:Generated_Source\PSoC4/ble_eventHandler.c **** */
  96:Generated_Source\PSoC4/ble_eventHandler.c **** static CYBLE_DISC_INCL_INFO_T cyBle_discInclInfo;
  97:Generated_Source\PSoC4/ble_eventHandler.c **** #endif /* CYBLE_CUSTOM_CLIENT */
  98:Generated_Source\PSoC4/ble_eventHandler.c **** 
  99:Generated_Source\PSoC4/ble_eventHandler.c **** #ifdef CYBLE_HIDS_CLIENT
 100:Generated_Source\PSoC4/ble_eventHandler.c ****     static uint8 disServiceIndex;      /* To discovery descriptors for multiple HID service instanc
 101:Generated_Source\PSoC4/ble_eventHandler.c **** #endif /* CYBLE_HIDS_CLIENT */
 102:Generated_Source\PSoC4/ble_eventHandler.c **** 
 103:Generated_Source\PSoC4/ble_eventHandler.c **** CYBLE_DISC_SRVC_INFO_T cyBle_serverInfo[CYBLE_SRVI_COUNT] = /*3*/
 104:Generated_Source\PSoC4/ble_eventHandler.c **** {
 105:Generated_Source\PSoC4/ble_eventHandler.c ****     {{CYBLE_GATT_INVALID_ATTR_HANDLE_VALUE, CYBLE_GATT_INVALID_ATTR_HANDLE_VALUE}, CYBLE_UUID_GAP_S
 106:Generated_Source\PSoC4/ble_eventHandler.c ****     {{CYBLE_GATT_INVALID_ATTR_HANDLE_VALUE, CYBLE_GATT_INVALID_ATTR_HANDLE_VALUE}, CYBLE_UUID_GATT_
 107:Generated_Source\PSoC4/ble_eventHandler.c **** #ifdef CYBLE_AIOS_CLIENT
 108:Generated_Source\PSoC4/ble_eventHandler.c ****     {{CYBLE_GATT_INVALID_ATTR_HANDLE_VALUE, CYBLE_GATT_INVALID_ATTR_HANDLE_VALUE}, CYBLE_UUID_AUTOM
 109:Generated_Source\PSoC4/ble_eventHandler.c **** #endif /* CYBLE_BCS_CLIENT */
 110:Generated_Source\PSoC4/ble_eventHandler.c **** #ifdef CYBLE_ANCS_CLIENT
 111:Generated_Source\PSoC4/ble_eventHandler.c ****     {{CYBLE_GATT_INVALID_ATTR_HANDLE_VALUE, CYBLE_GATT_INVALID_ATTR_HANDLE_VALUE}, 0x0000u},
 112:Generated_Source\PSoC4/ble_eventHandler.c **** #endif /* CYBLE_ANCS_CLIENT */
 113:Generated_Source\PSoC4/ble_eventHandler.c **** #ifdef CYBLE_ANS_CLIENT
 114:Generated_Source\PSoC4/ble_eventHandler.c ****     {{CYBLE_GATT_INVALID_ATTR_HANDLE_VALUE, CYBLE_GATT_INVALID_ATTR_HANDLE_VALUE}, 
 115:Generated_Source\PSoC4/ble_eventHandler.c ****         CYBLE_UUID_ALERT_NOTIFICATION_SERVICE},
 116:Generated_Source\PSoC4/ble_eventHandler.c **** #endif /* CYBLE_ANS_CLIENT */
 117:Generated_Source\PSoC4/ble_eventHandler.c **** #ifdef CYBLE_BAS_CLIENT
 118:Generated_Source\PSoC4/ble_eventHandler.c ****     {{CYBLE_GATT_INVALID_ATTR_HANDLE_VALUE, CYBLE_GATT_INVALID_ATTR_HANDLE_VALUE}, CYBLE_UUID_BAS_S
 119:Generated_Source\PSoC4/ble_eventHandler.c ****     #if(CYBLE_BASC_SERVICE_COUNT > 1u) /* Generate it by GUI */
 120:Generated_Source\PSoC4/ble_eventHandler.c ****         
 121:Generated_Source\PSoC4/ble_eventHandler.c ****     #endif /* CYBLE_BASC_SERVICE_COUNT > 1u */
 122:Generated_Source\PSoC4/ble_eventHandler.c **** #endif /* CYBLE_BAS_CLIENT */
 123:Generated_Source\PSoC4/ble_eventHandler.c **** #ifdef CYBLE_BCS_CLIENT
 124:Generated_Source\PSoC4/ble_eventHandler.c ****     {{CYBLE_GATT_INVALID_ATTR_HANDLE_VALUE, CYBLE_GATT_INVALID_ATTR_HANDLE_VALUE}, CYBLE_UUID_BODY_
 125:Generated_Source\PSoC4/ble_eventHandler.c **** #endif /* CYBLE_BCS_CLIENT */
 126:Generated_Source\PSoC4/ble_eventHandler.c **** #ifdef CYBLE_BLS_CLIENT
 127:Generated_Source\PSoC4/ble_eventHandler.c ****     {{CYBLE_GATT_INVALID_ATTR_HANDLE_VALUE, CYBLE_GATT_INVALID_ATTR_HANDLE_VALUE}, CYBLE_UUID_BLOOD
 128:Generated_Source\PSoC4/ble_eventHandler.c **** #endif /* CYBLE_BLS_CLIENT */
 129:Generated_Source\PSoC4/ble_eventHandler.c **** #ifdef CYBLE_BMS_CLIENT
 130:Generated_Source\PSoC4/ble_eventHandler.c ****     {{CYBLE_GATT_INVALID_ATTR_HANDLE_VALUE, CYBLE_GATT_INVALID_ATTR_HANDLE_VALUE}, CYBLE_UUID_BOND_
 131:Generated_Source\PSoC4/ble_eventHandler.c **** #endif /* CYBLE_BMS_CLIENT */
 132:Generated_Source\PSoC4/ble_eventHandler.c **** #ifdef CYBLE_CGMS_CLIENT
 133:Generated_Source\PSoC4/ble_eventHandler.c ****     {{CYBLE_GATT_INVALID_ATTR_HANDLE_VALUE, CYBLE_GATT_INVALID_ATTR_HANDLE_VALUE}, CYBLE_UUID_CGM_S
 134:Generated_Source\PSoC4/ble_eventHandler.c **** #endif /* CYBLE_CGMS_CLIENT */
 135:Generated_Source\PSoC4/ble_eventHandler.c **** #ifdef CYBLE_CPS_CLIENT
 136:Generated_Source\PSoC4/ble_eventHandler.c ****     {{CYBLE_GATT_INVALID_ATTR_HANDLE_VALUE, CYBLE_GATT_INVALID_ATTR_HANDLE_VALUE}, CYBLE_UUID_CPS_S
 137:Generated_Source\PSoC4/ble_eventHandler.c **** #endif /* CYBLE_CPS_CLIENT */
 138:Generated_Source\PSoC4/ble_eventHandler.c **** #ifdef CYBLE_CSCS_CLIENT
 139:Generated_Source\PSoC4/ble_eventHandler.c ****     {{CYBLE_GATT_INVALID_ATTR_HANDLE_VALUE, CYBLE_GATT_INVALID_ATTR_HANDLE_VALUE}, 
 140:Generated_Source\PSoC4/ble_eventHandler.c ****         CYBLE_UUID_CYCLING_SPEED_AND_CADENCE_SERVICE},
 141:Generated_Source\PSoC4/ble_eventHandler.c **** #endif /* CYBLE_CSCS_CLIENT */
 142:Generated_Source\PSoC4/ble_eventHandler.c **** #ifdef CYBLE_CTS_CLIENT
 143:Generated_Source\PSoC4/ble_eventHandler.c ****     {{CYBLE_GATT_INVALID_ATTR_HANDLE_VALUE, CYBLE_GATT_INVALID_ATTR_HANDLE_VALUE}, CYBLE_UUID_CURRE
 144:Generated_Source\PSoC4/ble_eventHandler.c **** #endif /* CYBLE_CTS_CLIENT */
 145:Generated_Source\PSoC4/ble_eventHandler.c **** #ifdef CYBLE_CUSTOM_CLIENT
ARM GAS  C:\Users\owono\AppData\Local\Temp\ccFLv7mf.s 			page 4


 146:Generated_Source\PSoC4/ble_eventHandler.c ****     
 147:Generated_Source\PSoC4/ble_eventHandler.c **** #endif /* CYBLE_CUSTOM_CLIENT */
 148:Generated_Source\PSoC4/ble_eventHandler.c **** #ifdef CYBLE_DIS_CLIENT
 149:Generated_Source\PSoC4/ble_eventHandler.c ****     {{CYBLE_GATT_INVALID_ATTR_HANDLE_VALUE, CYBLE_GATT_INVALID_ATTR_HANDLE_VALUE}, CYBLE_UUID_DEVIC
 150:Generated_Source\PSoC4/ble_eventHandler.c **** #endif /* CYBLE_DIS_CLIENT */
 151:Generated_Source\PSoC4/ble_eventHandler.c **** #ifdef CYBLE_ESS_CLIENT
 152:Generated_Source\PSoC4/ble_eventHandler.c ****     {{CYBLE_GATT_INVALID_ATTR_HANDLE_VALUE, CYBLE_GATT_INVALID_ATTR_HANDLE_VALUE}, 
 153:Generated_Source\PSoC4/ble_eventHandler.c ****         CYBLE_UUID_ENVIRONMENTAL_SENSING_SERVICE},
 154:Generated_Source\PSoC4/ble_eventHandler.c **** #endif /* CYBLE_ESS_CLIENT */
 155:Generated_Source\PSoC4/ble_eventHandler.c **** #ifdef CYBLE_GLS_CLIENT
 156:Generated_Source\PSoC4/ble_eventHandler.c ****     {{CYBLE_GATT_INVALID_ATTR_HANDLE_VALUE, CYBLE_GATT_INVALID_ATTR_HANDLE_VALUE}, CYBLE_UUID_GLUCO
 157:Generated_Source\PSoC4/ble_eventHandler.c **** #endif /* CYBLE_GLS_CLIENT */
 158:Generated_Source\PSoC4/ble_eventHandler.c **** #ifdef CYBLE_HIDS_CLIENT
 159:Generated_Source\PSoC4/ble_eventHandler.c ****     {{CYBLE_GATT_INVALID_ATTR_HANDLE_VALUE, CYBLE_GATT_INVALID_ATTR_HANDLE_VALUE}, CYBLE_UUID_HIDS_
 160:Generated_Source\PSoC4/ble_eventHandler.c ****     #if(CYBLE_HIDSC_SERVICE_COUNT > 1u) /* Generate it by GUI */
 161:Generated_Source\PSoC4/ble_eventHandler.c ****         
 162:Generated_Source\PSoC4/ble_eventHandler.c ****     #endif /* CYBLE_HIDSC_SERVICE_COUNT > 1u */
 163:Generated_Source\PSoC4/ble_eventHandler.c **** #endif /* CYBLE_HIDS_CLIENT */
 164:Generated_Source\PSoC4/ble_eventHandler.c **** #ifdef CYBLE_HPS_CLIENT
 165:Generated_Source\PSoC4/ble_eventHandler.c ****     {{CYBLE_GATT_INVALID_ATTR_HANDLE_VALUE, CYBLE_GATT_INVALID_ATTR_HANDLE_VALUE}, CYBLE_UUID_HTTP_
 166:Generated_Source\PSoC4/ble_eventHandler.c **** #endif /* CYBLE_HPS_CLIENT */
 167:Generated_Source\PSoC4/ble_eventHandler.c **** #ifdef CYBLE_HRS_CLIENT
 168:Generated_Source\PSoC4/ble_eventHandler.c ****     {{CYBLE_GATT_INVALID_ATTR_HANDLE_VALUE, CYBLE_GATT_INVALID_ATTR_HANDLE_VALUE}, CYBLE_UUID_HEART
 169:Generated_Source\PSoC4/ble_eventHandler.c **** #endif /* CYBLE_HRS_CLIENT */
 170:Generated_Source\PSoC4/ble_eventHandler.c **** #ifdef CYBLE_HTS_CLIENT
 171:Generated_Source\PSoC4/ble_eventHandler.c ****     {{CYBLE_GATT_INVALID_ATTR_HANDLE_VALUE, CYBLE_GATT_INVALID_ATTR_HANDLE_VALUE}, CYBLE_UUID_HEALT
 172:Generated_Source\PSoC4/ble_eventHandler.c **** #endif /* CYBLE_HTS_CLIENT */
 173:Generated_Source\PSoC4/ble_eventHandler.c **** #ifdef CYBLE_IAS_CLIENT
 174:Generated_Source\PSoC4/ble_eventHandler.c ****     {{CYBLE_GATT_INVALID_ATTR_HANDLE_VALUE, CYBLE_GATT_INVALID_ATTR_HANDLE_VALUE}, CYBLE_UUID_IMMED
 175:Generated_Source\PSoC4/ble_eventHandler.c **** #endif /* CYBLE_IAS_CLIENT */
 176:Generated_Source\PSoC4/ble_eventHandler.c **** #ifdef CYBLE_IPS_CLIENT
 177:Generated_Source\PSoC4/ble_eventHandler.c ****     {{CYBLE_GATT_INVALID_ATTR_HANDLE_VALUE, CYBLE_GATT_INVALID_ATTR_HANDLE_VALUE}, CYBLE_UUID_IPS_S
 178:Generated_Source\PSoC4/ble_eventHandler.c **** #endif /* CYBLE_IPS_CLIENT */
 179:Generated_Source\PSoC4/ble_eventHandler.c **** #ifdef CYBLE_LLS_CLIENT
 180:Generated_Source\PSoC4/ble_eventHandler.c ****     {{CYBLE_GATT_INVALID_ATTR_HANDLE_VALUE, CYBLE_GATT_INVALID_ATTR_HANDLE_VALUE}, CYBLE_UUID_LINK_
 181:Generated_Source\PSoC4/ble_eventHandler.c **** #endif /* CYBLE_LLS_CLIENT */
 182:Generated_Source\PSoC4/ble_eventHandler.c **** #ifdef CYBLE_LNS_CLIENT
 183:Generated_Source\PSoC4/ble_eventHandler.c ****     {{CYBLE_GATT_INVALID_ATTR_HANDLE_VALUE, CYBLE_GATT_INVALID_ATTR_HANDLE_VALUE}, CYBLE_UUID_LOCAT
 184:Generated_Source\PSoC4/ble_eventHandler.c **** #endif /* CYBLE_LNS_CLIENT */
 185:Generated_Source\PSoC4/ble_eventHandler.c **** #ifdef CYBLE_NDCS_CLIENT
 186:Generated_Source\PSoC4/ble_eventHandler.c ****     {{CYBLE_GATT_INVALID_ATTR_HANDLE_VALUE, CYBLE_GATT_INVALID_ATTR_HANDLE_VALUE}, CYBLE_UUID_NEXT_
 187:Generated_Source\PSoC4/ble_eventHandler.c **** #endif /* CYBLE_NDCS_CLIENT */
 188:Generated_Source\PSoC4/ble_eventHandler.c **** #ifdef CYBLE_IPSS_CLIENT
 189:Generated_Source\PSoC4/ble_eventHandler.c ****     {{CYBLE_GATT_INVALID_ATTR_HANDLE_VALUE, CYBLE_GATT_INVALID_ATTR_HANDLE_VALUE}, CYBLE_UUID_INTER
 190:Generated_Source\PSoC4/ble_eventHandler.c **** #endif /* CYBLE_IPSS_CLIENT */
 191:Generated_Source\PSoC4/ble_eventHandler.c **** #ifdef CYBLE_PASS_CLIENT
 192:Generated_Source\PSoC4/ble_eventHandler.c ****     {{CYBLE_GATT_INVALID_ATTR_HANDLE_VALUE, CYBLE_GATT_INVALID_ATTR_HANDLE_VALUE}, CYBLE_UUID_PHONE
 193:Generated_Source\PSoC4/ble_eventHandler.c **** #endif /* CYBLE_PASS_CLIENT */
 194:Generated_Source\PSoC4/ble_eventHandler.c **** #ifdef CYBLE_PLXS_CLIENT
 195:Generated_Source\PSoC4/ble_eventHandler.c ****     {{CYBLE_GATT_INVALID_ATTR_HANDLE_VALUE, CYBLE_GATT_INVALID_ATTR_HANDLE_VALUE}, CYBLE_UUID_PLXS_
 196:Generated_Source\PSoC4/ble_eventHandler.c **** #endif /* CYBLE_PLXS_CLIENT */
 197:Generated_Source\PSoC4/ble_eventHandler.c **** #ifdef CYBLE_RSCS_CLIENT
 198:Generated_Source\PSoC4/ble_eventHandler.c ****     {{CYBLE_GATT_INVALID_ATTR_HANDLE_VALUE, CYBLE_GATT_INVALID_ATTR_HANDLE_VALUE}, CYBLE_UUID_RUNNI
 199:Generated_Source\PSoC4/ble_eventHandler.c **** #endif /* CYBLE_RSCS_CLIENT */
 200:Generated_Source\PSoC4/ble_eventHandler.c **** #ifdef CYBLE_RTUS_CLIENT
 201:Generated_Source\PSoC4/ble_eventHandler.c ****     {{CYBLE_GATT_INVALID_ATTR_HANDLE_VALUE, CYBLE_GATT_INVALID_ATTR_HANDLE_VALUE}, CYBLE_UUID_REF_T
 202:Generated_Source\PSoC4/ble_eventHandler.c **** #endif /* CYBLE_RTUS_CLIENT */
ARM GAS  C:\Users\owono\AppData\Local\Temp\ccFLv7mf.s 			page 5


 203:Generated_Source\PSoC4/ble_eventHandler.c **** #ifdef CYBLE_SCPS_CLIENT
 204:Generated_Source\PSoC4/ble_eventHandler.c ****     {{CYBLE_GATT_INVALID_ATTR_HANDLE_VALUE, CYBLE_GATT_INVALID_ATTR_HANDLE_VALUE}, CYBLE_UUID_SCAN_
 205:Generated_Source\PSoC4/ble_eventHandler.c **** #endif /* CYBLE_SCPS_CLIENT */
 206:Generated_Source\PSoC4/ble_eventHandler.c **** #ifdef CYBLE_TPS_CLIENT
 207:Generated_Source\PSoC4/ble_eventHandler.c ****     {{CYBLE_GATT_INVALID_ATTR_HANDLE_VALUE, CYBLE_GATT_INVALID_ATTR_HANDLE_VALUE}, CYBLE_UUID_TX_PO
 208:Generated_Source\PSoC4/ble_eventHandler.c **** #endif /* CYBLE_TPS_CLIENT */
 209:Generated_Source\PSoC4/ble_eventHandler.c **** #ifdef CYBLE_UDS_CLIENT
 210:Generated_Source\PSoC4/ble_eventHandler.c ****     {{CYBLE_GATT_INVALID_ATTR_HANDLE_VALUE, CYBLE_GATT_INVALID_ATTR_HANDLE_VALUE}, CYBLE_UUID_USER_
 211:Generated_Source\PSoC4/ble_eventHandler.c **** #endif /* CYBLE_UDS_CLIENT */
 212:Generated_Source\PSoC4/ble_eventHandler.c **** #ifdef CYBLE_WSS_CLIENT
 213:Generated_Source\PSoC4/ble_eventHandler.c ****     {{CYBLE_GATT_INVALID_ATTR_HANDLE_VALUE, CYBLE_GATT_INVALID_ATTR_HANDLE_VALUE}, CYBLE_UUID_WEIGH
 214:Generated_Source\PSoC4/ble_eventHandler.c **** #endif /* CYBLE_WSS_CLIENT */
 215:Generated_Source\PSoC4/ble_eventHandler.c **** #ifdef CYBLE_WPTS_CLIENT
 216:Generated_Source\PSoC4/ble_eventHandler.c ****     {{CYBLE_GATT_INVALID_ATTR_HANDLE_VALUE, CYBLE_GATT_INVALID_ATTR_HANDLE_VALUE}, CYBLE_UUID_WIREL
 217:Generated_Source\PSoC4/ble_eventHandler.c **** #endif /* CYBLE_WPTS_CLIENT */
 218:Generated_Source\PSoC4/ble_eventHandler.c **** };
 219:Generated_Source\PSoC4/ble_eventHandler.c **** 
 220:Generated_Source\PSoC4/ble_eventHandler.c **** CYBLE_GAPC_T cyBle_gapc;
 221:Generated_Source\PSoC4/ble_eventHandler.c **** 
 222:Generated_Source\PSoC4/ble_eventHandler.c **** #endif /* CYBLE_GATT_ROLE_CLIENT */
 223:Generated_Source\PSoC4/ble_eventHandler.c **** 
 224:Generated_Source\PSoC4/ble_eventHandler.c **** /* Default device security */
 225:Generated_Source\PSoC4/ble_eventHandler.c **** CYBLE_GAP_AUTH_INFO_T cyBle_authInfo =
 226:Generated_Source\PSoC4/ble_eventHandler.c **** {
 227:Generated_Source\PSoC4/ble_eventHandler.c ****     (CYBLE_GAP_SEC_MODE_1 | CYBLE_GAP_SEC_LEVEL_1 ), /* uint8 security */
 228:Generated_Source\PSoC4/ble_eventHandler.c ****     CYBLE_GAP_BONDING, /* uint8 bonding */
 229:Generated_Source\PSoC4/ble_eventHandler.c ****     0x10u,      /* uint8 ekeySize */
 230:Generated_Source\PSoC4/ble_eventHandler.c ****     CYBLE_GAP_AUTH_ERROR_NONE, /* CYBLE_AUTH_FAILED_REASON_T authErr */
 231:Generated_Source\PSoC4/ble_eventHandler.c ****     0x01u,      /* uint8 pairingProperties */
 232:Generated_Source\PSoC4/ble_eventHandler.c **** };
 233:Generated_Source\PSoC4/ble_eventHandler.c **** 
 234:Generated_Source\PSoC4/ble_eventHandler.c **** #if(CYBLE_GATT_ROLE_SERVER)
 235:Generated_Source\PSoC4/ble_eventHandler.c **** 
 236:Generated_Source\PSoC4/ble_eventHandler.c **** 
 237:Generated_Source\PSoC4/ble_eventHandler.c **** /******************************************************************************    
 238:Generated_Source\PSoC4/ble_eventHandler.c **** * Function Name: CyBle_WriteReqHandler
 239:Generated_Source\PSoC4/ble_eventHandler.c **** ***************************************************************************//**
 240:Generated_Source\PSoC4/ble_eventHandler.c **** * 
 241:Generated_Source\PSoC4/ble_eventHandler.c **** *  Handles the Write Request event from BLE stack.
 242:Generated_Source\PSoC4/ble_eventHandler.c **** * 
 243:Generated_Source\PSoC4/ble_eventHandler.c **** *  CYBLE_GATTS_WRITE_REQ_PARAM_T * eventParam - event parameter
 244:Generated_Source\PSoC4/ble_eventHandler.c **** * 
 245:Generated_Source\PSoC4/ble_eventHandler.c **** * \return
 246:Generated_Source\PSoC4/ble_eventHandler.c **** *  None
 247:Generated_Source\PSoC4/ble_eventHandler.c **** * 
 248:Generated_Source\PSoC4/ble_eventHandler.c **** ******************************************************************************/
 249:Generated_Source\PSoC4/ble_eventHandler.c **** static void CyBle_WriteReqHandler(CYBLE_GATTS_WRITE_REQ_PARAM_T *eventParam)
 250:Generated_Source\PSoC4/ble_eventHandler.c **** {
 251:Generated_Source\PSoC4/ble_eventHandler.c ****     CYBLE_GATT_ERR_CODE_T gattErr;
 252:Generated_Source\PSoC4/ble_eventHandler.c **** #if defined CYBLE_CTS_SERVER || defined CYBLE_ESS_SERVER
 253:Generated_Source\PSoC4/ble_eventHandler.c ****     cyBle_gattError = CYBLE_GATT_ERR_NONE;
 254:Generated_Source\PSoC4/ble_eventHandler.c **** #endif /* defined CYBLE_CTS_SERVER || defined CYBLE_ESS_SERVER */
 255:Generated_Source\PSoC4/ble_eventHandler.c ****     
 256:Generated_Source\PSoC4/ble_eventHandler.c ****     gattErr = CyBle_GattsWriteEventHandler(eventParam);
 257:Generated_Source\PSoC4/ble_eventHandler.c **** #ifdef CYBLE_AIOS_SERVER
 258:Generated_Source\PSoC4/ble_eventHandler.c ****     if(((cyBle_eventHandlerFlag & CYBLE_CALLBACK) != 0u) && (gattErr == CYBLE_GATT_ERR_NONE))
 259:Generated_Source\PSoC4/ble_eventHandler.c ****     {
ARM GAS  C:\Users\owono\AppData\Local\Temp\ccFLv7mf.s 			page 6


 260:Generated_Source\PSoC4/ble_eventHandler.c ****         gattErr = CyBle_AiossWriteEventHandler(eventParam);
 261:Generated_Source\PSoC4/ble_eventHandler.c ****     }
 262:Generated_Source\PSoC4/ble_eventHandler.c **** #endif /* CYBLE_AIOS_SERVER */
 263:Generated_Source\PSoC4/ble_eventHandler.c **** #ifdef CYBLE_ANCS_SERVER
 264:Generated_Source\PSoC4/ble_eventHandler.c ****     if(((cyBle_eventHandlerFlag & CYBLE_CALLBACK) != 0u) && (gattErr == CYBLE_GATT_ERR_NONE))
 265:Generated_Source\PSoC4/ble_eventHandler.c ****     {
 266:Generated_Source\PSoC4/ble_eventHandler.c ****         gattErr = CyBle_AncssWriteEventHandler(eventParam);
 267:Generated_Source\PSoC4/ble_eventHandler.c ****     }
 268:Generated_Source\PSoC4/ble_eventHandler.c **** #endif /* CYBLE_ANCS_SERVER */
 269:Generated_Source\PSoC4/ble_eventHandler.c **** #ifdef CYBLE_ANS_SERVER
 270:Generated_Source\PSoC4/ble_eventHandler.c ****     if(((cyBle_eventHandlerFlag & CYBLE_CALLBACK) != 0u) && (gattErr == CYBLE_GATT_ERR_NONE))
 271:Generated_Source\PSoC4/ble_eventHandler.c ****     {
 272:Generated_Source\PSoC4/ble_eventHandler.c ****         gattErr = CyBle_AnssWriteEventHandler(eventParam);
 273:Generated_Source\PSoC4/ble_eventHandler.c ****     }
 274:Generated_Source\PSoC4/ble_eventHandler.c **** #endif /* CYBLE_ANS_SERVER */
 275:Generated_Source\PSoC4/ble_eventHandler.c **** #ifdef CYBLE_BAS_SERVER
 276:Generated_Source\PSoC4/ble_eventHandler.c ****     if(((cyBle_eventHandlerFlag & CYBLE_CALLBACK) != 0u) && (gattErr == CYBLE_GATT_ERR_NONE))
 277:Generated_Source\PSoC4/ble_eventHandler.c ****     {
 278:Generated_Source\PSoC4/ble_eventHandler.c ****         gattErr = CyBle_BassWriteEventHandler(eventParam);
 279:Generated_Source\PSoC4/ble_eventHandler.c ****     }
 280:Generated_Source\PSoC4/ble_eventHandler.c **** #endif /* CYBLE_BAS_SERVER */
 281:Generated_Source\PSoC4/ble_eventHandler.c **** #ifdef CYBLE_BCS_SERVER
 282:Generated_Source\PSoC4/ble_eventHandler.c ****     if(((cyBle_eventHandlerFlag & CYBLE_CALLBACK) != 0u) && (gattErr == CYBLE_GATT_ERR_NONE))
 283:Generated_Source\PSoC4/ble_eventHandler.c ****     {
 284:Generated_Source\PSoC4/ble_eventHandler.c ****         gattErr = CyBle_BcssWriteEventHandler(eventParam);
 285:Generated_Source\PSoC4/ble_eventHandler.c ****     }
 286:Generated_Source\PSoC4/ble_eventHandler.c **** #endif /* CYBLE_BCS_SERVER */
 287:Generated_Source\PSoC4/ble_eventHandler.c **** #ifdef CYBLE_BLS_SERVER
 288:Generated_Source\PSoC4/ble_eventHandler.c ****     if(((cyBle_eventHandlerFlag & CYBLE_CALLBACK) != 0u) && (gattErr == CYBLE_GATT_ERR_NONE))
 289:Generated_Source\PSoC4/ble_eventHandler.c ****     {
 290:Generated_Source\PSoC4/ble_eventHandler.c ****         gattErr = CyBle_BlssWriteEventHandler(eventParam);
 291:Generated_Source\PSoC4/ble_eventHandler.c ****     }
 292:Generated_Source\PSoC4/ble_eventHandler.c **** #endif /* CYBLE_BLS_SERVER */
 293:Generated_Source\PSoC4/ble_eventHandler.c **** #ifdef CYBLE_BMS_SERVER
 294:Generated_Source\PSoC4/ble_eventHandler.c ****     if(((cyBle_eventHandlerFlag & CYBLE_CALLBACK) != 0u) && (gattErr == CYBLE_GATT_ERR_NONE))
 295:Generated_Source\PSoC4/ble_eventHandler.c ****     {
 296:Generated_Source\PSoC4/ble_eventHandler.c ****         gattErr = CyBle_BmssWriteEventHandler(eventParam);
 297:Generated_Source\PSoC4/ble_eventHandler.c ****     }
 298:Generated_Source\PSoC4/ble_eventHandler.c **** #endif /* CYBLE_BMS_SERVER */
 299:Generated_Source\PSoC4/ble_eventHandler.c **** #ifdef CYBLE_BTS_SERVER
 300:Generated_Source\PSoC4/ble_eventHandler.c ****     if((cyBle_eventHandlerFlag & CYBLE_CALLBACK) != 0u)
 301:Generated_Source\PSoC4/ble_eventHandler.c ****     {
 302:Generated_Source\PSoC4/ble_eventHandler.c ****         gattErr = CyBle_BtsWriteEventHandler(eventParam);
 303:Generated_Source\PSoC4/ble_eventHandler.c ****     }
 304:Generated_Source\PSoC4/ble_eventHandler.c **** #endif /* CYBLE_BTS_SERVER */
 305:Generated_Source\PSoC4/ble_eventHandler.c **** #ifdef CYBLE_CGMS_SERVER
 306:Generated_Source\PSoC4/ble_eventHandler.c ****     if(((cyBle_eventHandlerFlag & CYBLE_CALLBACK) != 0u) && (gattErr == CYBLE_GATT_ERR_NONE))
 307:Generated_Source\PSoC4/ble_eventHandler.c ****     {
 308:Generated_Source\PSoC4/ble_eventHandler.c ****         gattErr = CyBle_CgmssWriteEventHandler(eventParam);
 309:Generated_Source\PSoC4/ble_eventHandler.c ****     }
 310:Generated_Source\PSoC4/ble_eventHandler.c **** #endif /* CYBLE_CGMS_SERVER */
 311:Generated_Source\PSoC4/ble_eventHandler.c **** #ifdef CYBLE_CPS_SERVER
 312:Generated_Source\PSoC4/ble_eventHandler.c ****     if(((cyBle_eventHandlerFlag & CYBLE_CALLBACK) != 0u) && (gattErr == CYBLE_GATT_ERR_NONE))
 313:Generated_Source\PSoC4/ble_eventHandler.c ****     {
 314:Generated_Source\PSoC4/ble_eventHandler.c ****         gattErr = CyBle_CpssWriteEventHandler(eventParam);
 315:Generated_Source\PSoC4/ble_eventHandler.c ****     }
 316:Generated_Source\PSoC4/ble_eventHandler.c **** #endif /* CYBLE_CPS_SERVER */
ARM GAS  C:\Users\owono\AppData\Local\Temp\ccFLv7mf.s 			page 7


 317:Generated_Source\PSoC4/ble_eventHandler.c **** #ifdef CYBLE_CSCS_SERVER
 318:Generated_Source\PSoC4/ble_eventHandler.c ****     if(((cyBle_eventHandlerFlag & CYBLE_CALLBACK) != 0u) && (gattErr == CYBLE_GATT_ERR_NONE))
 319:Generated_Source\PSoC4/ble_eventHandler.c ****     {
 320:Generated_Source\PSoC4/ble_eventHandler.c ****         gattErr = CyBle_CscssWriteEventHandler(eventParam);
 321:Generated_Source\PSoC4/ble_eventHandler.c ****     }
 322:Generated_Source\PSoC4/ble_eventHandler.c **** #endif /* CYBLE_CSCS_SERVER */
 323:Generated_Source\PSoC4/ble_eventHandler.c **** #ifdef CYBLE_CTS_SERVER
 324:Generated_Source\PSoC4/ble_eventHandler.c ****     if(((cyBle_eventHandlerFlag & CYBLE_CALLBACK) != 0u) && (gattErr == CYBLE_GATT_ERR_NONE))
 325:Generated_Source\PSoC4/ble_eventHandler.c ****     {
 326:Generated_Source\PSoC4/ble_eventHandler.c ****         gattErr = CyBle_CtssWriteEventHandler(eventParam);
 327:Generated_Source\PSoC4/ble_eventHandler.c ****     }
 328:Generated_Source\PSoC4/ble_eventHandler.c **** #endif /* CYBLE_CTS_SERVER */
 329:Generated_Source\PSoC4/ble_eventHandler.c **** #ifdef CYBLE_ESS_SERVER
 330:Generated_Source\PSoC4/ble_eventHandler.c ****     if(((cyBle_eventHandlerFlag & CYBLE_CALLBACK) != 0u) && (gattErr == CYBLE_GATT_ERR_NONE))
 331:Generated_Source\PSoC4/ble_eventHandler.c ****     {
 332:Generated_Source\PSoC4/ble_eventHandler.c ****         gattErr = CyBle_EsssWriteEventHandler(eventParam);
 333:Generated_Source\PSoC4/ble_eventHandler.c ****     }
 334:Generated_Source\PSoC4/ble_eventHandler.c **** #endif /* CYBLE_ESS_SERVER */
 335:Generated_Source\PSoC4/ble_eventHandler.c **** #ifdef CYBLE_GLS_SERVER
 336:Generated_Source\PSoC4/ble_eventHandler.c ****     if(((cyBle_eventHandlerFlag & CYBLE_CALLBACK) != 0u) && (gattErr == CYBLE_GATT_ERR_NONE))
 337:Generated_Source\PSoC4/ble_eventHandler.c ****     {
 338:Generated_Source\PSoC4/ble_eventHandler.c ****         gattErr = CyBle_GlssWriteEventHandler(eventParam);
 339:Generated_Source\PSoC4/ble_eventHandler.c ****     }
 340:Generated_Source\PSoC4/ble_eventHandler.c **** #endif /* CYBLE_GLS_SERVER */
 341:Generated_Source\PSoC4/ble_eventHandler.c **** #ifdef CYBLE_HIDS_SERVER
 342:Generated_Source\PSoC4/ble_eventHandler.c ****     if(((cyBle_eventHandlerFlag & CYBLE_CALLBACK) != 0u) && (gattErr == CYBLE_GATT_ERR_NONE))
 343:Generated_Source\PSoC4/ble_eventHandler.c ****     {
 344:Generated_Source\PSoC4/ble_eventHandler.c ****         gattErr = CyBle_HidssWriteEventHandler(eventParam);
 345:Generated_Source\PSoC4/ble_eventHandler.c ****     }
 346:Generated_Source\PSoC4/ble_eventHandler.c **** #endif /* CYBLE_HIDS_SERVER */
 347:Generated_Source\PSoC4/ble_eventHandler.c **** #ifdef CYBLE_HPS_SERVER
 348:Generated_Source\PSoC4/ble_eventHandler.c ****     if(((cyBle_eventHandlerFlag & CYBLE_CALLBACK) != 0u) && (gattErr == CYBLE_GATT_ERR_NONE))
 349:Generated_Source\PSoC4/ble_eventHandler.c ****     {
 350:Generated_Source\PSoC4/ble_eventHandler.c ****         gattErr = CyBle_HpssWriteEventHandler(eventParam);
 351:Generated_Source\PSoC4/ble_eventHandler.c ****     }
 352:Generated_Source\PSoC4/ble_eventHandler.c **** #endif /* CYBLE_HPS_SERVER */
 353:Generated_Source\PSoC4/ble_eventHandler.c **** #ifdef CYBLE_HRS_SERVER
 354:Generated_Source\PSoC4/ble_eventHandler.c ****     if(((cyBle_eventHandlerFlag & CYBLE_CALLBACK) != 0u) && (gattErr == CYBLE_GATT_ERR_NONE))
 355:Generated_Source\PSoC4/ble_eventHandler.c ****     {
 356:Generated_Source\PSoC4/ble_eventHandler.c ****         gattErr = CyBle_HrssWriteEventHandler(eventParam);
 357:Generated_Source\PSoC4/ble_eventHandler.c ****     }
 358:Generated_Source\PSoC4/ble_eventHandler.c **** #endif /* CYBLE_HRS_SERVER */
 359:Generated_Source\PSoC4/ble_eventHandler.c **** #ifdef CYBLE_HTS_SERVER
 360:Generated_Source\PSoC4/ble_eventHandler.c ****     if(((cyBle_eventHandlerFlag & CYBLE_CALLBACK) != 0u) && (gattErr == CYBLE_GATT_ERR_NONE))
 361:Generated_Source\PSoC4/ble_eventHandler.c ****     {
 362:Generated_Source\PSoC4/ble_eventHandler.c ****         gattErr = CyBle_HtssWriteEventHandler(eventParam);
 363:Generated_Source\PSoC4/ble_eventHandler.c ****     }
 364:Generated_Source\PSoC4/ble_eventHandler.c **** #endif /* CYBLE_HTS_SERVER */
 365:Generated_Source\PSoC4/ble_eventHandler.c **** #ifdef CYBLE_IPS_SERVER
 366:Generated_Source\PSoC4/ble_eventHandler.c ****     if(((cyBle_eventHandlerFlag & CYBLE_CALLBACK) != 0u) && (gattErr == CYBLE_GATT_ERR_NONE))
 367:Generated_Source\PSoC4/ble_eventHandler.c ****     {
 368:Generated_Source\PSoC4/ble_eventHandler.c ****         gattErr = CyBle_IpssWriteEventHandler(eventParam);
 369:Generated_Source\PSoC4/ble_eventHandler.c ****     }
 370:Generated_Source\PSoC4/ble_eventHandler.c **** #endif /* CYBLE_IPS_SERVER */
 371:Generated_Source\PSoC4/ble_eventHandler.c **** #ifdef CYBLE_LLS_SERVER
 372:Generated_Source\PSoC4/ble_eventHandler.c ****     if(((cyBle_eventHandlerFlag & CYBLE_CALLBACK) != 0u) && (gattErr == CYBLE_GATT_ERR_NONE))
 373:Generated_Source\PSoC4/ble_eventHandler.c ****     {
ARM GAS  C:\Users\owono\AppData\Local\Temp\ccFLv7mf.s 			page 8


 374:Generated_Source\PSoC4/ble_eventHandler.c ****         gattErr = CyBle_LlssWriteEventHandler(eventParam);
 375:Generated_Source\PSoC4/ble_eventHandler.c ****     }
 376:Generated_Source\PSoC4/ble_eventHandler.c **** #endif /* CYBLE_LLS_SERVER */
 377:Generated_Source\PSoC4/ble_eventHandler.c **** #ifdef CYBLE_LNS_SERVER
 378:Generated_Source\PSoC4/ble_eventHandler.c ****     if(((cyBle_eventHandlerFlag & CYBLE_CALLBACK) != 0u) && (gattErr == CYBLE_GATT_ERR_NONE))
 379:Generated_Source\PSoC4/ble_eventHandler.c ****     {
 380:Generated_Source\PSoC4/ble_eventHandler.c ****         gattErr = CyBle_LnssWriteEventHandler(eventParam);
 381:Generated_Source\PSoC4/ble_eventHandler.c ****     }
 382:Generated_Source\PSoC4/ble_eventHandler.c **** #endif /* CYBLE_LNS_SERVER */
 383:Generated_Source\PSoC4/ble_eventHandler.c **** #ifdef CYBLE_PASS_SERVER
 384:Generated_Source\PSoC4/ble_eventHandler.c ****     if(((cyBle_eventHandlerFlag & CYBLE_CALLBACK) != 0u) && (gattErr == CYBLE_GATT_ERR_NONE))
 385:Generated_Source\PSoC4/ble_eventHandler.c ****     {
 386:Generated_Source\PSoC4/ble_eventHandler.c ****         gattErr = CyBle_PasssWriteEventHandler(eventParam);
 387:Generated_Source\PSoC4/ble_eventHandler.c ****     }
 388:Generated_Source\PSoC4/ble_eventHandler.c **** #endif /* CYBLE_PASS_SERVER */
 389:Generated_Source\PSoC4/ble_eventHandler.c **** #ifdef CYBLE_PLXS_SERVER
 390:Generated_Source\PSoC4/ble_eventHandler.c ****     if(((cyBle_eventHandlerFlag & CYBLE_CALLBACK) != 0u) && (gattErr == CYBLE_GATT_ERR_NONE))
 391:Generated_Source\PSoC4/ble_eventHandler.c ****     {
 392:Generated_Source\PSoC4/ble_eventHandler.c ****         gattErr = CyBle_PlxssWriteEventHandler(eventParam);
 393:Generated_Source\PSoC4/ble_eventHandler.c ****     }
 394:Generated_Source\PSoC4/ble_eventHandler.c **** #endif /* CYBLE_PLXS_SERVER */    
 395:Generated_Source\PSoC4/ble_eventHandler.c **** #ifdef CYBLE_RSCS_SERVER
 396:Generated_Source\PSoC4/ble_eventHandler.c ****     if(((cyBle_eventHandlerFlag & CYBLE_CALLBACK) != 0u) && (gattErr == CYBLE_GATT_ERR_NONE))
 397:Generated_Source\PSoC4/ble_eventHandler.c ****     {
 398:Generated_Source\PSoC4/ble_eventHandler.c ****         gattErr = CyBle_RscssWriteEventHandler(eventParam);
 399:Generated_Source\PSoC4/ble_eventHandler.c ****     }
 400:Generated_Source\PSoC4/ble_eventHandler.c **** #endif /* CYBLE_RSCS_SERVER */
 401:Generated_Source\PSoC4/ble_eventHandler.c **** #ifdef CYBLE_SCPS_SERVER
 402:Generated_Source\PSoC4/ble_eventHandler.c ****     if(((cyBle_eventHandlerFlag & CYBLE_CALLBACK) != 0u) && (gattErr == CYBLE_GATT_ERR_NONE))
 403:Generated_Source\PSoC4/ble_eventHandler.c ****     {
 404:Generated_Source\PSoC4/ble_eventHandler.c ****         gattErr = CyBle_ScpssWriteEventHandler(eventParam);
 405:Generated_Source\PSoC4/ble_eventHandler.c ****     }
 406:Generated_Source\PSoC4/ble_eventHandler.c **** #endif /* CYBLE_SCPS_SERVER */
 407:Generated_Source\PSoC4/ble_eventHandler.c **** #ifdef CYBLE_TPS_SERVER
 408:Generated_Source\PSoC4/ble_eventHandler.c ****     if(((cyBle_eventHandlerFlag & CYBLE_CALLBACK) != 0u) && (gattErr == CYBLE_GATT_ERR_NONE))
 409:Generated_Source\PSoC4/ble_eventHandler.c ****     {
 410:Generated_Source\PSoC4/ble_eventHandler.c ****         gattErr = CyBle_TpssWriteEventHandler(eventParam);
 411:Generated_Source\PSoC4/ble_eventHandler.c ****     }
 412:Generated_Source\PSoC4/ble_eventHandler.c **** #endif /* CYBLE_TPS_SERVER */
 413:Generated_Source\PSoC4/ble_eventHandler.c **** #ifdef CYBLE_UDS_SERVER
 414:Generated_Source\PSoC4/ble_eventHandler.c ****     if(((cyBle_eventHandlerFlag & CYBLE_CALLBACK) != 0u) && (gattErr == CYBLE_GATT_ERR_NONE))
 415:Generated_Source\PSoC4/ble_eventHandler.c ****     {
 416:Generated_Source\PSoC4/ble_eventHandler.c ****         gattErr = CyBle_UdssWriteEventHandler(eventParam);
 417:Generated_Source\PSoC4/ble_eventHandler.c ****     }
 418:Generated_Source\PSoC4/ble_eventHandler.c **** #endif /* CYBLE_UDS_SERVER */
 419:Generated_Source\PSoC4/ble_eventHandler.c **** #ifdef CYBLE_WPTS_SERVER
 420:Generated_Source\PSoC4/ble_eventHandler.c ****     if(((cyBle_eventHandlerFlag & CYBLE_CALLBACK) != 0u) && (gattErr == CYBLE_GATT_ERR_NONE))
 421:Generated_Source\PSoC4/ble_eventHandler.c ****     {
 422:Generated_Source\PSoC4/ble_eventHandler.c ****         gattErr = CyBle_WptssWriteEventHandler(eventParam);
 423:Generated_Source\PSoC4/ble_eventHandler.c ****     }
 424:Generated_Source\PSoC4/ble_eventHandler.c **** #endif /* CYBLE_WPTS_SERVER */
 425:Generated_Source\PSoC4/ble_eventHandler.c **** #ifdef CYBLE_WSS_SERVER
 426:Generated_Source\PSoC4/ble_eventHandler.c ****     if(((cyBle_eventHandlerFlag & CYBLE_CALLBACK) != 0u) && (gattErr == CYBLE_GATT_ERR_NONE))
 427:Generated_Source\PSoC4/ble_eventHandler.c ****     {
 428:Generated_Source\PSoC4/ble_eventHandler.c ****         gattErr = CyBle_WsssWriteEventHandler(eventParam);
 429:Generated_Source\PSoC4/ble_eventHandler.c ****     }
 430:Generated_Source\PSoC4/ble_eventHandler.c **** #endif /* CYBLE_WSS_SERVER */
ARM GAS  C:\Users\owono\AppData\Local\Temp\ccFLv7mf.s 			page 9


 431:Generated_Source\PSoC4/ble_eventHandler.c **** 
 432:Generated_Source\PSoC4/ble_eventHandler.c ****     /* Send response when event was handled by service */
 433:Generated_Source\PSoC4/ble_eventHandler.c ****     if((cyBle_eventHandlerFlag & CYBLE_CALLBACK) == 0u)
 434:Generated_Source\PSoC4/ble_eventHandler.c ****     {
 435:Generated_Source\PSoC4/ble_eventHandler.c ****         if(gattErr != CYBLE_GATT_ERR_NONE)
 436:Generated_Source\PSoC4/ble_eventHandler.c ****         {
 437:Generated_Source\PSoC4/ble_eventHandler.c ****             CYBLE_GATTS_ERR_PARAM_T err_param;
 438:Generated_Source\PSoC4/ble_eventHandler.c ****             
 439:Generated_Source\PSoC4/ble_eventHandler.c ****             err_param.opcode = (uint8) CYBLE_GATT_WRITE_REQ;
 440:Generated_Source\PSoC4/ble_eventHandler.c ****             err_param.attrHandle = eventParam->handleValPair.attrHandle;
 441:Generated_Source\PSoC4/ble_eventHandler.c ****             err_param.errorCode = gattErr;
 442:Generated_Source\PSoC4/ble_eventHandler.c **** 
 443:Generated_Source\PSoC4/ble_eventHandler.c ****             /* Send Error Response */
 444:Generated_Source\PSoC4/ble_eventHandler.c ****             (void)CyBle_GattsErrorRsp(eventParam->connHandle, &err_param);
 445:Generated_Source\PSoC4/ble_eventHandler.c ****         }
 446:Generated_Source\PSoC4/ble_eventHandler.c ****         else
 447:Generated_Source\PSoC4/ble_eventHandler.c ****         {
 448:Generated_Source\PSoC4/ble_eventHandler.c ****             (void)CyBle_GattsWriteRsp(eventParam->connHandle);
 449:Generated_Source\PSoC4/ble_eventHandler.c ****         }
 450:Generated_Source\PSoC4/ble_eventHandler.c ****     }
 451:Generated_Source\PSoC4/ble_eventHandler.c **** }
 452:Generated_Source\PSoC4/ble_eventHandler.c **** 
 453:Generated_Source\PSoC4/ble_eventHandler.c **** 
 454:Generated_Source\PSoC4/ble_eventHandler.c **** /****************************************************************************** 
 455:Generated_Source\PSoC4/ble_eventHandler.c **** * Function Name: CyBle_ValueConfirmation
 456:Generated_Source\PSoC4/ble_eventHandler.c **** ***************************************************************************//**
 457:Generated_Source\PSoC4/ble_eventHandler.c **** * 
 458:Generated_Source\PSoC4/ble_eventHandler.c **** *  Handles the Value Confirmation request event from the BLE stack.
 459:Generated_Source\PSoC4/ble_eventHandler.c **** * 
 460:Generated_Source\PSoC4/ble_eventHandler.c **** *  \param eventParam: Pointer to a structure of type 'CYBLE_CONN_HANDLE_T'
 461:Generated_Source\PSoC4/ble_eventHandler.c **** * 
 462:Generated_Source\PSoC4/ble_eventHandler.c **** * \return
 463:Generated_Source\PSoC4/ble_eventHandler.c **** *  None
 464:Generated_Source\PSoC4/ble_eventHandler.c **** * 
 465:Generated_Source\PSoC4/ble_eventHandler.c **** ******************************************************************************/
 466:Generated_Source\PSoC4/ble_eventHandler.c **** static void CyBle_ValueConfirmation(const CYBLE_CONN_HANDLE_T *eventParam)
 467:Generated_Source\PSoC4/ble_eventHandler.c **** {
 468:Generated_Source\PSoC4/ble_eventHandler.c ****     if(eventParam != NULL)
 469:Generated_Source\PSoC4/ble_eventHandler.c ****     {
 470:Generated_Source\PSoC4/ble_eventHandler.c ****     #ifdef CYBLE_AIOS_SERVER
 471:Generated_Source\PSoC4/ble_eventHandler.c ****         if((cyBle_eventHandlerFlag & CYBLE_CALLBACK) != 0u)
 472:Generated_Source\PSoC4/ble_eventHandler.c ****         {
 473:Generated_Source\PSoC4/ble_eventHandler.c ****             CyBle_AiossConfirmationEventHandler(eventParam);
 474:Generated_Source\PSoC4/ble_eventHandler.c ****         }
 475:Generated_Source\PSoC4/ble_eventHandler.c ****     #endif /* CYBLE_AIOS_SERVER */
 476:Generated_Source\PSoC4/ble_eventHandler.c ****     #ifdef CYBLE_BCS_SERVER
 477:Generated_Source\PSoC4/ble_eventHandler.c ****         CyBle_BcssConfirmationEventHandler(eventParam);
 478:Generated_Source\PSoC4/ble_eventHandler.c ****     #endif /* CYBLE_BCS_SERVER */
 479:Generated_Source\PSoC4/ble_eventHandler.c ****     #ifdef CYBLE_BLS_SERVER
 480:Generated_Source\PSoC4/ble_eventHandler.c ****         if((cyBle_eventHandlerFlag & CYBLE_CALLBACK) != 0u)
 481:Generated_Source\PSoC4/ble_eventHandler.c ****         {
 482:Generated_Source\PSoC4/ble_eventHandler.c ****             CyBle_BlssConfirmationEventHandler(eventParam);
 483:Generated_Source\PSoC4/ble_eventHandler.c ****         }
 484:Generated_Source\PSoC4/ble_eventHandler.c ****     #endif /* CYBLE_BLS_SERVER */
 485:Generated_Source\PSoC4/ble_eventHandler.c ****     
 486:Generated_Source\PSoC4/ble_eventHandler.c ****     #ifdef CYBLE_CGMS_SERVER
 487:Generated_Source\PSoC4/ble_eventHandler.c ****         if((cyBle_eventHandlerFlag & CYBLE_CALLBACK) != 0u)
ARM GAS  C:\Users\owono\AppData\Local\Temp\ccFLv7mf.s 			page 10


 488:Generated_Source\PSoC4/ble_eventHandler.c ****         {
 489:Generated_Source\PSoC4/ble_eventHandler.c ****             CyBle_CgmssConfirmationEventHandler(eventParam);
 490:Generated_Source\PSoC4/ble_eventHandler.c ****         }
 491:Generated_Source\PSoC4/ble_eventHandler.c ****     #endif /* CYBLE_CGMS_SERVER */
 492:Generated_Source\PSoC4/ble_eventHandler.c ****     
 493:Generated_Source\PSoC4/ble_eventHandler.c ****     #ifdef CYBLE_CPS_SERVER
 494:Generated_Source\PSoC4/ble_eventHandler.c ****         if((cyBle_eventHandlerFlag & CYBLE_CALLBACK) != 0u)
 495:Generated_Source\PSoC4/ble_eventHandler.c ****         {
 496:Generated_Source\PSoC4/ble_eventHandler.c ****             CyBle_CpssConfirmationEventHandler(eventParam);
 497:Generated_Source\PSoC4/ble_eventHandler.c ****         }
 498:Generated_Source\PSoC4/ble_eventHandler.c ****     #endif /* CYBLE_CPS_SERVER */
 499:Generated_Source\PSoC4/ble_eventHandler.c ****     
 500:Generated_Source\PSoC4/ble_eventHandler.c ****     #ifdef CYBLE_CSCS_SERVER
 501:Generated_Source\PSoC4/ble_eventHandler.c ****         if((cyBle_eventHandlerFlag & CYBLE_CALLBACK) != 0u)
 502:Generated_Source\PSoC4/ble_eventHandler.c ****         {
 503:Generated_Source\PSoC4/ble_eventHandler.c ****             CyBle_CscssConfirmationEventHandler(eventParam);
 504:Generated_Source\PSoC4/ble_eventHandler.c ****         }
 505:Generated_Source\PSoC4/ble_eventHandler.c ****     #endif /* CYBLE_CSCS_SERVER */
 506:Generated_Source\PSoC4/ble_eventHandler.c ****     
 507:Generated_Source\PSoC4/ble_eventHandler.c ****     #ifdef CYBLE_ESS_SERVER
 508:Generated_Source\PSoC4/ble_eventHandler.c ****         if((cyBle_eventHandlerFlag & CYBLE_CALLBACK) != 0u)
 509:Generated_Source\PSoC4/ble_eventHandler.c ****         {
 510:Generated_Source\PSoC4/ble_eventHandler.c ****             CyBle_EsssConfirmationEventHandler(eventParam);
 511:Generated_Source\PSoC4/ble_eventHandler.c ****         }
 512:Generated_Source\PSoC4/ble_eventHandler.c ****     #endif /* CYBLE_ESS_SERVER */
 513:Generated_Source\PSoC4/ble_eventHandler.c ****     
 514:Generated_Source\PSoC4/ble_eventHandler.c ****     #ifdef CYBLE_GLS_SERVER
 515:Generated_Source\PSoC4/ble_eventHandler.c ****         if((cyBle_eventHandlerFlag & CYBLE_CALLBACK) != 0u)
 516:Generated_Source\PSoC4/ble_eventHandler.c ****         {
 517:Generated_Source\PSoC4/ble_eventHandler.c ****             CyBle_GlssConfirmationEventHandler(eventParam);
 518:Generated_Source\PSoC4/ble_eventHandler.c ****         }
 519:Generated_Source\PSoC4/ble_eventHandler.c ****     #endif /* CYBLE_GLS_SERVER */
 520:Generated_Source\PSoC4/ble_eventHandler.c ****     
 521:Generated_Source\PSoC4/ble_eventHandler.c ****     #ifdef CYBLE_HTS_SERVER
 522:Generated_Source\PSoC4/ble_eventHandler.c ****         if((cyBle_eventHandlerFlag & CYBLE_CALLBACK) != 0u)
 523:Generated_Source\PSoC4/ble_eventHandler.c ****         {
 524:Generated_Source\PSoC4/ble_eventHandler.c ****             CyBle_HtssConfirmationEventHandler(eventParam);
 525:Generated_Source\PSoC4/ble_eventHandler.c ****         }
 526:Generated_Source\PSoC4/ble_eventHandler.c ****     #endif /* CYBLE_HTS_SERVER */
 527:Generated_Source\PSoC4/ble_eventHandler.c **** 
 528:Generated_Source\PSoC4/ble_eventHandler.c ****     #ifdef CYBLE_LNS_SERVER
 529:Generated_Source\PSoC4/ble_eventHandler.c ****         if((cyBle_eventHandlerFlag & CYBLE_CALLBACK) != 0u)
 530:Generated_Source\PSoC4/ble_eventHandler.c ****         {
 531:Generated_Source\PSoC4/ble_eventHandler.c ****             CyBle_LnssConfirmationEventHandler(eventParam);
 532:Generated_Source\PSoC4/ble_eventHandler.c ****         }
 533:Generated_Source\PSoC4/ble_eventHandler.c ****     #endif /* CYBLE_LNS_SERVER */
 534:Generated_Source\PSoC4/ble_eventHandler.c ****     
 535:Generated_Source\PSoC4/ble_eventHandler.c ****     #ifdef CYBLE_RSCS_SERVER
 536:Generated_Source\PSoC4/ble_eventHandler.c ****         if((cyBle_eventHandlerFlag & CYBLE_CALLBACK) != 0u)
 537:Generated_Source\PSoC4/ble_eventHandler.c ****         {
 538:Generated_Source\PSoC4/ble_eventHandler.c ****             CyBle_RscssConfirmationEventHandler(eventParam);
 539:Generated_Source\PSoC4/ble_eventHandler.c ****         }
 540:Generated_Source\PSoC4/ble_eventHandler.c ****     #endif /* CYBLE_RSCS_SERVER */
 541:Generated_Source\PSoC4/ble_eventHandler.c ****     
 542:Generated_Source\PSoC4/ble_eventHandler.c ****     #ifdef CYBLE_UDS_SERVER
 543:Generated_Source\PSoC4/ble_eventHandler.c ****         if((cyBle_eventHandlerFlag & CYBLE_CALLBACK) != 0u)
 544:Generated_Source\PSoC4/ble_eventHandler.c ****         {
ARM GAS  C:\Users\owono\AppData\Local\Temp\ccFLv7mf.s 			page 11


 545:Generated_Source\PSoC4/ble_eventHandler.c ****             CyBle_UdssConfirmationEventHandler(eventParam);
 546:Generated_Source\PSoC4/ble_eventHandler.c ****         }
 547:Generated_Source\PSoC4/ble_eventHandler.c ****     #endif /* CYBLE_UDS_SERVER */
 548:Generated_Source\PSoC4/ble_eventHandler.c ****     
 549:Generated_Source\PSoC4/ble_eventHandler.c ****     #ifdef CYBLE_WPTS_SERVER
 550:Generated_Source\PSoC4/ble_eventHandler.c ****         if((cyBle_eventHandlerFlag & CYBLE_CALLBACK) != 0u)
 551:Generated_Source\PSoC4/ble_eventHandler.c ****         {
 552:Generated_Source\PSoC4/ble_eventHandler.c ****             CyBle_WptssConfirmationEventHandler(eventParam);
 553:Generated_Source\PSoC4/ble_eventHandler.c ****         }
 554:Generated_Source\PSoC4/ble_eventHandler.c ****     #endif /* CYBLE_WPTS_SERVER */
 555:Generated_Source\PSoC4/ble_eventHandler.c ****     
 556:Generated_Source\PSoC4/ble_eventHandler.c ****     #ifdef CYBLE_WSS_SERVER
 557:Generated_Source\PSoC4/ble_eventHandler.c ****         if((cyBle_eventHandlerFlag & CYBLE_CALLBACK) != 0u)
 558:Generated_Source\PSoC4/ble_eventHandler.c ****         {
 559:Generated_Source\PSoC4/ble_eventHandler.c ****             CyBle_WsssConfirmationEventHandler(eventParam);
 560:Generated_Source\PSoC4/ble_eventHandler.c ****         }
 561:Generated_Source\PSoC4/ble_eventHandler.c ****     #endif /* CYBLE_WSS_SERVER */
 562:Generated_Source\PSoC4/ble_eventHandler.c ****     }
 563:Generated_Source\PSoC4/ble_eventHandler.c **** }
 564:Generated_Source\PSoC4/ble_eventHandler.c **** 
 565:Generated_Source\PSoC4/ble_eventHandler.c **** #endif /* CYBLE_GATT_ROLE_SERVER */
 566:Generated_Source\PSoC4/ble_eventHandler.c **** 
 567:Generated_Source\PSoC4/ble_eventHandler.c **** 
 568:Generated_Source\PSoC4/ble_eventHandler.c **** #if (CYBLE_GATT_ROLE_CLIENT)
 569:Generated_Source\PSoC4/ble_eventHandler.c **** 
 570:Generated_Source\PSoC4/ble_eventHandler.c **** /****************************************************************************** 
 571:Generated_Source\PSoC4/ble_eventHandler.c **** * Function Name: CyBle_GattcWriteResponseEventHandler
 572:Generated_Source\PSoC4/ble_eventHandler.c **** ***************************************************************************//**
 573:Generated_Source\PSoC4/ble_eventHandler.c **** * 
 574:Generated_Source\PSoC4/ble_eventHandler.c **** *  Handles the Write response event from the BLE stack.
 575:Generated_Source\PSoC4/ble_eventHandler.c **** * 
 576:Generated_Source\PSoC4/ble_eventHandler.c **** *  \param eventParam: Pointer to a structure of type 'CYBLE_CONN_HANDLE_T'
 577:Generated_Source\PSoC4/ble_eventHandler.c **** * 
 578:Generated_Source\PSoC4/ble_eventHandler.c **** * \return
 579:Generated_Source\PSoC4/ble_eventHandler.c **** *  None
 580:Generated_Source\PSoC4/ble_eventHandler.c **** * 
 581:Generated_Source\PSoC4/ble_eventHandler.c **** ******************************************************************************/
 582:Generated_Source\PSoC4/ble_eventHandler.c **** static void CyBle_GattcWriteResponseEventHandler(const CYBLE_CONN_HANDLE_T *eventParam)
 583:Generated_Source\PSoC4/ble_eventHandler.c **** {
 584:Generated_Source\PSoC4/ble_eventHandler.c **** 
 585:Generated_Source\PSoC4/ble_eventHandler.c **** #ifdef CYBLE_AIOS_CLIENT
 586:Generated_Source\PSoC4/ble_eventHandler.c ****     if((cyBle_eventHandlerFlag & CYBLE_CALLBACK) != 0u)
 587:Generated_Source\PSoC4/ble_eventHandler.c ****     {
 588:Generated_Source\PSoC4/ble_eventHandler.c ****         CyBle_AioscWriteResponseEventHandler(eventParam);
 589:Generated_Source\PSoC4/ble_eventHandler.c ****     }
 590:Generated_Source\PSoC4/ble_eventHandler.c **** #endif /* CYBLE_AIOS_CLIENT */
 591:Generated_Source\PSoC4/ble_eventHandler.c **** 
 592:Generated_Source\PSoC4/ble_eventHandler.c **** #ifdef CYBLE_ANCS_CLIENT
 593:Generated_Source\PSoC4/ble_eventHandler.c ****     CyBle_AncscWriteResponseEventHandler(eventParam);
 594:Generated_Source\PSoC4/ble_eventHandler.c **** #endif /* CYBLE_ANCS_CLIENT */
 595:Generated_Source\PSoC4/ble_eventHandler.c **** 
 596:Generated_Source\PSoC4/ble_eventHandler.c **** #ifdef CYBLE_ANS_CLIENT
 597:Generated_Source\PSoC4/ble_eventHandler.c ****     if((cyBle_eventHandlerFlag & CYBLE_CALLBACK) != 0u)
 598:Generated_Source\PSoC4/ble_eventHandler.c ****     {
 599:Generated_Source\PSoC4/ble_eventHandler.c ****         CyBle_AnscWriteResponseEventHandler(eventParam);
 600:Generated_Source\PSoC4/ble_eventHandler.c ****     }
 601:Generated_Source\PSoC4/ble_eventHandler.c **** #endif /* CYBLE_ANS_CLIENT */
ARM GAS  C:\Users\owono\AppData\Local\Temp\ccFLv7mf.s 			page 12


 602:Generated_Source\PSoC4/ble_eventHandler.c **** 
 603:Generated_Source\PSoC4/ble_eventHandler.c **** #ifdef CYBLE_BAS_CLIENT
 604:Generated_Source\PSoC4/ble_eventHandler.c ****     if((cyBle_eventHandlerFlag & CYBLE_CALLBACK) != 0u)
 605:Generated_Source\PSoC4/ble_eventHandler.c ****     {
 606:Generated_Source\PSoC4/ble_eventHandler.c ****         CyBle_BascWriteResponseEventHandler(eventParam);
 607:Generated_Source\PSoC4/ble_eventHandler.c ****     }
 608:Generated_Source\PSoC4/ble_eventHandler.c **** #endif /* CYBLE_BAS_CLIENT */
 609:Generated_Source\PSoC4/ble_eventHandler.c **** 
 610:Generated_Source\PSoC4/ble_eventHandler.c **** #ifdef CYBLE_BCS_CLIENT
 611:Generated_Source\PSoC4/ble_eventHandler.c ****     if((cyBle_eventHandlerFlag & CYBLE_CALLBACK) != 0u)
 612:Generated_Source\PSoC4/ble_eventHandler.c ****     {
 613:Generated_Source\PSoC4/ble_eventHandler.c ****         CyBle_BcscWriteResponseEventHandler(eventParam);
 614:Generated_Source\PSoC4/ble_eventHandler.c ****     }
 615:Generated_Source\PSoC4/ble_eventHandler.c **** #endif /* CYBLE_BCS_CLIENT */
 616:Generated_Source\PSoC4/ble_eventHandler.c **** 
 617:Generated_Source\PSoC4/ble_eventHandler.c **** #ifdef CYBLE_BLS_CLIENT
 618:Generated_Source\PSoC4/ble_eventHandler.c ****     if((cyBle_eventHandlerFlag & CYBLE_CALLBACK) != 0u)
 619:Generated_Source\PSoC4/ble_eventHandler.c ****     {
 620:Generated_Source\PSoC4/ble_eventHandler.c ****         CyBle_BlscWriteResponseEventHandler(eventParam);
 621:Generated_Source\PSoC4/ble_eventHandler.c ****     }
 622:Generated_Source\PSoC4/ble_eventHandler.c **** #endif /* CYBLE_BLS_CLIENT */
 623:Generated_Source\PSoC4/ble_eventHandler.c **** 
 624:Generated_Source\PSoC4/ble_eventHandler.c **** #ifdef CYBLE_BMS_CLIENT
 625:Generated_Source\PSoC4/ble_eventHandler.c ****     if((cyBle_eventHandlerFlag & CYBLE_CALLBACK) != 0u)
 626:Generated_Source\PSoC4/ble_eventHandler.c ****     {
 627:Generated_Source\PSoC4/ble_eventHandler.c ****         CyBle_BmscWriteResponseEventHandler(eventParam);
 628:Generated_Source\PSoC4/ble_eventHandler.c ****     }
 629:Generated_Source\PSoC4/ble_eventHandler.c **** #endif /* CYBLE_BMS_CLIENT */
 630:Generated_Source\PSoC4/ble_eventHandler.c **** 
 631:Generated_Source\PSoC4/ble_eventHandler.c **** #ifdef CYBLE_CGMS_CLIENT
 632:Generated_Source\PSoC4/ble_eventHandler.c ****     if((cyBle_eventHandlerFlag & CYBLE_CALLBACK) != 0u)
 633:Generated_Source\PSoC4/ble_eventHandler.c ****     {
 634:Generated_Source\PSoC4/ble_eventHandler.c ****         CyBle_CgmscWriteResponseEventHandler(eventParam);
 635:Generated_Source\PSoC4/ble_eventHandler.c ****     }
 636:Generated_Source\PSoC4/ble_eventHandler.c **** #endif /* CYBLE_CGMS_CLIENT */
 637:Generated_Source\PSoC4/ble_eventHandler.c **** 
 638:Generated_Source\PSoC4/ble_eventHandler.c **** #ifdef CYBLE_CPS_CLIENT
 639:Generated_Source\PSoC4/ble_eventHandler.c ****     if((cyBle_eventHandlerFlag & CYBLE_CALLBACK) != 0u)
 640:Generated_Source\PSoC4/ble_eventHandler.c ****     {
 641:Generated_Source\PSoC4/ble_eventHandler.c ****         CyBle_CpscWriteResponseEventHandler(eventParam);
 642:Generated_Source\PSoC4/ble_eventHandler.c ****     }
 643:Generated_Source\PSoC4/ble_eventHandler.c **** #endif /* CYBLE_CPS_CLIENT */
 644:Generated_Source\PSoC4/ble_eventHandler.c **** 
 645:Generated_Source\PSoC4/ble_eventHandler.c **** #ifdef CYBLE_CSCS_CLIENT
 646:Generated_Source\PSoC4/ble_eventHandler.c ****     if((cyBle_eventHandlerFlag & CYBLE_CALLBACK) != 0u)
 647:Generated_Source\PSoC4/ble_eventHandler.c ****     {
 648:Generated_Source\PSoC4/ble_eventHandler.c ****         CyBle_CscscWriteResponseEventHandler(eventParam);
 649:Generated_Source\PSoC4/ble_eventHandler.c ****     }
 650:Generated_Source\PSoC4/ble_eventHandler.c **** #endif /* CYBLE_CSCS_CLIENT */
 651:Generated_Source\PSoC4/ble_eventHandler.c **** 
 652:Generated_Source\PSoC4/ble_eventHandler.c **** #ifdef CYBLE_CTS_CLIENT
 653:Generated_Source\PSoC4/ble_eventHandler.c ****     if((cyBle_eventHandlerFlag & CYBLE_CALLBACK) != 0u)
 654:Generated_Source\PSoC4/ble_eventHandler.c ****     {
 655:Generated_Source\PSoC4/ble_eventHandler.c ****         CyBle_CtscWriteResponseEventHandler(eventParam);
 656:Generated_Source\PSoC4/ble_eventHandler.c ****     }
 657:Generated_Source\PSoC4/ble_eventHandler.c **** #endif /* CYBLE_CTS_CLIENT */
 658:Generated_Source\PSoC4/ble_eventHandler.c **** 
ARM GAS  C:\Users\owono\AppData\Local\Temp\ccFLv7mf.s 			page 13


 659:Generated_Source\PSoC4/ble_eventHandler.c **** #ifdef CYBLE_ESS_CLIENT
 660:Generated_Source\PSoC4/ble_eventHandler.c ****     if((cyBle_eventHandlerFlag & CYBLE_CALLBACK) != 0u)
 661:Generated_Source\PSoC4/ble_eventHandler.c ****     {
 662:Generated_Source\PSoC4/ble_eventHandler.c ****         CyBle_EsscWriteResponseEventHandler(eventParam);
 663:Generated_Source\PSoC4/ble_eventHandler.c ****     }
 664:Generated_Source\PSoC4/ble_eventHandler.c **** #endif /* CYBLE_ESS_CLIENT */
 665:Generated_Source\PSoC4/ble_eventHandler.c **** 
 666:Generated_Source\PSoC4/ble_eventHandler.c **** #ifdef CYBLE_GLS_CLIENT
 667:Generated_Source\PSoC4/ble_eventHandler.c ****     if((cyBle_eventHandlerFlag & CYBLE_CALLBACK) != 0u)
 668:Generated_Source\PSoC4/ble_eventHandler.c ****     {
 669:Generated_Source\PSoC4/ble_eventHandler.c ****         CyBle_GlscWriteResponseEventHandler(eventParam);
 670:Generated_Source\PSoC4/ble_eventHandler.c ****     }
 671:Generated_Source\PSoC4/ble_eventHandler.c **** #endif /* CYBLE_GLS_CLIENT */
 672:Generated_Source\PSoC4/ble_eventHandler.c **** 
 673:Generated_Source\PSoC4/ble_eventHandler.c **** #ifdef CYBLE_HIDS_CLIENT
 674:Generated_Source\PSoC4/ble_eventHandler.c ****     if((cyBle_eventHandlerFlag & CYBLE_CALLBACK) != 0u)
 675:Generated_Source\PSoC4/ble_eventHandler.c ****     {
 676:Generated_Source\PSoC4/ble_eventHandler.c ****         CyBle_HidscWriteResponseEventHandler(eventParam);
 677:Generated_Source\PSoC4/ble_eventHandler.c ****     }
 678:Generated_Source\PSoC4/ble_eventHandler.c **** #endif /* CYBLE_HIDS_CLIENT */
 679:Generated_Source\PSoC4/ble_eventHandler.c **** 
 680:Generated_Source\PSoC4/ble_eventHandler.c **** #ifdef CYBLE_HPS_CLIENT
 681:Generated_Source\PSoC4/ble_eventHandler.c ****     if((cyBle_eventHandlerFlag & CYBLE_CALLBACK) != 0u)
 682:Generated_Source\PSoC4/ble_eventHandler.c ****     {
 683:Generated_Source\PSoC4/ble_eventHandler.c ****         CyBle_HpscWriteResponseEventHandler(eventParam);
 684:Generated_Source\PSoC4/ble_eventHandler.c ****     }
 685:Generated_Source\PSoC4/ble_eventHandler.c **** #endif /* CYBLE_HPS_CLIENT */
 686:Generated_Source\PSoC4/ble_eventHandler.c **** 
 687:Generated_Source\PSoC4/ble_eventHandler.c **** #ifdef CYBLE_HRS_CLIENT
 688:Generated_Source\PSoC4/ble_eventHandler.c ****     if((cyBle_eventHandlerFlag & CYBLE_CALLBACK) != 0u)
 689:Generated_Source\PSoC4/ble_eventHandler.c ****     {
 690:Generated_Source\PSoC4/ble_eventHandler.c ****         CyBle_HrscWriteResponseEventHandler(eventParam);
 691:Generated_Source\PSoC4/ble_eventHandler.c ****     }
 692:Generated_Source\PSoC4/ble_eventHandler.c **** #endif /* CYBLE_HRS_CLIENT */
 693:Generated_Source\PSoC4/ble_eventHandler.c **** 
 694:Generated_Source\PSoC4/ble_eventHandler.c **** #ifdef CYBLE_HTS_CLIENT
 695:Generated_Source\PSoC4/ble_eventHandler.c ****     if((cyBle_eventHandlerFlag & CYBLE_CALLBACK) != 0u)
 696:Generated_Source\PSoC4/ble_eventHandler.c ****     {
 697:Generated_Source\PSoC4/ble_eventHandler.c ****         CyBle_HtscWriteResponseEventHandler(eventParam);
 698:Generated_Source\PSoC4/ble_eventHandler.c ****     }
 699:Generated_Source\PSoC4/ble_eventHandler.c **** #endif /* CYBLE_HTS_CLIENT */
 700:Generated_Source\PSoC4/ble_eventHandler.c **** 
 701:Generated_Source\PSoC4/ble_eventHandler.c **** #ifdef CYBLE_IPS_CLIENT
 702:Generated_Source\PSoC4/ble_eventHandler.c ****     if((cyBle_eventHandlerFlag & CYBLE_CALLBACK) != 0u)
 703:Generated_Source\PSoC4/ble_eventHandler.c ****     {
 704:Generated_Source\PSoC4/ble_eventHandler.c ****         CyBle_IpscWriteResponseEventHandler(eventParam);
 705:Generated_Source\PSoC4/ble_eventHandler.c ****     }
 706:Generated_Source\PSoC4/ble_eventHandler.c **** #endif /* CYBLE_IPS_CLIENT */
 707:Generated_Source\PSoC4/ble_eventHandler.c **** 
 708:Generated_Source\PSoC4/ble_eventHandler.c **** #ifdef CYBLE_LLS_CLIENT
 709:Generated_Source\PSoC4/ble_eventHandler.c ****     if((cyBle_eventHandlerFlag & CYBLE_CALLBACK) != 0u)
 710:Generated_Source\PSoC4/ble_eventHandler.c ****     {
 711:Generated_Source\PSoC4/ble_eventHandler.c ****         CyBle_LlscWriteResponseEventHandler(eventParam);
 712:Generated_Source\PSoC4/ble_eventHandler.c ****     }
 713:Generated_Source\PSoC4/ble_eventHandler.c **** #endif /* CYBLE_LLS_CLIENT */
 714:Generated_Source\PSoC4/ble_eventHandler.c **** 
 715:Generated_Source\PSoC4/ble_eventHandler.c **** #ifdef CYBLE_LNS_CLIENT
ARM GAS  C:\Users\owono\AppData\Local\Temp\ccFLv7mf.s 			page 14


 716:Generated_Source\PSoC4/ble_eventHandler.c ****     if((cyBle_eventHandlerFlag & CYBLE_CALLBACK) != 0u)
 717:Generated_Source\PSoC4/ble_eventHandler.c ****     {
 718:Generated_Source\PSoC4/ble_eventHandler.c ****         CyBle_LnscWriteResponseEventHandler(eventParam);
 719:Generated_Source\PSoC4/ble_eventHandler.c ****     }
 720:Generated_Source\PSoC4/ble_eventHandler.c **** #endif /* CYBLE_LNS_CLIENT */
 721:Generated_Source\PSoC4/ble_eventHandler.c **** 
 722:Generated_Source\PSoC4/ble_eventHandler.c **** #ifdef CYBLE_PASS_CLIENT
 723:Generated_Source\PSoC4/ble_eventHandler.c ****     if((cyBle_eventHandlerFlag & CYBLE_CALLBACK) != 0u)
 724:Generated_Source\PSoC4/ble_eventHandler.c ****     {
 725:Generated_Source\PSoC4/ble_eventHandler.c ****         CyBle_PasscWriteResponseEventHandler(eventParam);
 726:Generated_Source\PSoC4/ble_eventHandler.c ****     }
 727:Generated_Source\PSoC4/ble_eventHandler.c **** #endif /* CYBLE_PASS_CLIENT */
 728:Generated_Source\PSoC4/ble_eventHandler.c **** 
 729:Generated_Source\PSoC4/ble_eventHandler.c **** #ifdef CYBLE_PLXS_CLIENT
 730:Generated_Source\PSoC4/ble_eventHandler.c ****     if((cyBle_eventHandlerFlag & CYBLE_CALLBACK) != 0u)
 731:Generated_Source\PSoC4/ble_eventHandler.c ****     {
 732:Generated_Source\PSoC4/ble_eventHandler.c ****         CyBle_PlxscWriteResponseEventHandler(eventParam);
 733:Generated_Source\PSoC4/ble_eventHandler.c ****     }
 734:Generated_Source\PSoC4/ble_eventHandler.c **** #endif /* CYBLE_PASS_CLIENT */
 735:Generated_Source\PSoC4/ble_eventHandler.c **** 
 736:Generated_Source\PSoC4/ble_eventHandler.c **** #ifdef CYBLE_RSCS_CLIENT
 737:Generated_Source\PSoC4/ble_eventHandler.c ****     if((cyBle_eventHandlerFlag & CYBLE_CALLBACK) != 0u)
 738:Generated_Source\PSoC4/ble_eventHandler.c ****     {
 739:Generated_Source\PSoC4/ble_eventHandler.c ****         CyBle_RscscWriteResponseEventHandler(eventParam);
 740:Generated_Source\PSoC4/ble_eventHandler.c ****     }
 741:Generated_Source\PSoC4/ble_eventHandler.c **** #endif /* CYBLE_RSCS_CLIENT */
 742:Generated_Source\PSoC4/ble_eventHandler.c **** 
 743:Generated_Source\PSoC4/ble_eventHandler.c **** #ifdef CYBLE_SCPS_CLIENT
 744:Generated_Source\PSoC4/ble_eventHandler.c ****     if((cyBle_eventHandlerFlag & CYBLE_CALLBACK) != 0u)
 745:Generated_Source\PSoC4/ble_eventHandler.c ****     {
 746:Generated_Source\PSoC4/ble_eventHandler.c ****         CyBle_ScpscWriteResponseEventHandler(eventParam);
 747:Generated_Source\PSoC4/ble_eventHandler.c ****     }
 748:Generated_Source\PSoC4/ble_eventHandler.c **** #endif /* CYBLE_SCPS_CLIENT */
 749:Generated_Source\PSoC4/ble_eventHandler.c **** 
 750:Generated_Source\PSoC4/ble_eventHandler.c **** #ifdef CYBLE_TPS_CLIENT
 751:Generated_Source\PSoC4/ble_eventHandler.c ****     if((cyBle_eventHandlerFlag & CYBLE_CALLBACK) != 0u)
 752:Generated_Source\PSoC4/ble_eventHandler.c ****     {
 753:Generated_Source\PSoC4/ble_eventHandler.c ****         CyBle_TpscWriteResponseEventHandler(eventParam);
 754:Generated_Source\PSoC4/ble_eventHandler.c ****     }
 755:Generated_Source\PSoC4/ble_eventHandler.c **** #endif /* CYBLE_TPS_CLIENT */
 756:Generated_Source\PSoC4/ble_eventHandler.c **** 
 757:Generated_Source\PSoC4/ble_eventHandler.c **** #ifdef CYBLE_UDS_CLIENT
 758:Generated_Source\PSoC4/ble_eventHandler.c ****     if((cyBle_eventHandlerFlag & CYBLE_CALLBACK) != 0u)
 759:Generated_Source\PSoC4/ble_eventHandler.c ****     {
 760:Generated_Source\PSoC4/ble_eventHandler.c ****         CyBle_UdscWriteResponseEventHandler(eventParam);
 761:Generated_Source\PSoC4/ble_eventHandler.c ****     }
 762:Generated_Source\PSoC4/ble_eventHandler.c **** #endif /* CYBLE_UDS_CLIENT */
 763:Generated_Source\PSoC4/ble_eventHandler.c **** #ifdef CYBLE_WPTS_CLIENT
 764:Generated_Source\PSoC4/ble_eventHandler.c ****     if((cyBle_eventHandlerFlag & CYBLE_CALLBACK) != 0u)
 765:Generated_Source\PSoC4/ble_eventHandler.c ****     {
 766:Generated_Source\PSoC4/ble_eventHandler.c ****         CyBle_WptscWriteResponseEventHandler(eventParam);
 767:Generated_Source\PSoC4/ble_eventHandler.c ****     }
 768:Generated_Source\PSoC4/ble_eventHandler.c **** #endif /* CYBLE_WPTS_CLIENT */
 769:Generated_Source\PSoC4/ble_eventHandler.c **** #ifdef CYBLE_WSS_CLIENT
 770:Generated_Source\PSoC4/ble_eventHandler.c ****     if((cyBle_eventHandlerFlag & CYBLE_CALLBACK) != 0u)
 771:Generated_Source\PSoC4/ble_eventHandler.c ****     {
 772:Generated_Source\PSoC4/ble_eventHandler.c ****         CyBle_WsscWriteResponseEventHandler(eventParam);
ARM GAS  C:\Users\owono\AppData\Local\Temp\ccFLv7mf.s 			page 15


 773:Generated_Source\PSoC4/ble_eventHandler.c ****     }
 774:Generated_Source\PSoC4/ble_eventHandler.c **** #endif /* CYBLE_WSS_CLIENT */
 775:Generated_Source\PSoC4/ble_eventHandler.c **** }
 776:Generated_Source\PSoC4/ble_eventHandler.c **** 
 777:Generated_Source\PSoC4/ble_eventHandler.c **** 
 778:Generated_Source\PSoC4/ble_eventHandler.c **** /******************************************************************************    
 779:Generated_Source\PSoC4/ble_eventHandler.c **** * Function Name: CyBle_NotificationEventHandler
 780:Generated_Source\PSoC4/ble_eventHandler.c **** ***************************************************************************//**
 781:Generated_Source\PSoC4/ble_eventHandler.c **** * 
 782:Generated_Source\PSoC4/ble_eventHandler.c **** *  Handles the Notification event from BLE stack.
 783:Generated_Source\PSoC4/ble_eventHandler.c **** * 
 784:Generated_Source\PSoC4/ble_eventHandler.c **** *  \param eventParam: event parameter
 785:Generated_Source\PSoC4/ble_eventHandler.c **** * 
 786:Generated_Source\PSoC4/ble_eventHandler.c **** * \return
 787:Generated_Source\PSoC4/ble_eventHandler.c **** *  None
 788:Generated_Source\PSoC4/ble_eventHandler.c **** * 
 789:Generated_Source\PSoC4/ble_eventHandler.c **** ******************************************************************************/
 790:Generated_Source\PSoC4/ble_eventHandler.c **** static void CyBle_NotificationEventHandler(CYBLE_GATTC_HANDLE_VALUE_NTF_PARAM_T *eventParam)
 791:Generated_Source\PSoC4/ble_eventHandler.c **** {
 792:Generated_Source\PSoC4/ble_eventHandler.c **** #ifdef CYBLE_AIOS_CLIENT
 793:Generated_Source\PSoC4/ble_eventHandler.c ****     if((cyBle_eventHandlerFlag & CYBLE_CALLBACK) != 0u)
 794:Generated_Source\PSoC4/ble_eventHandler.c ****     {
 795:Generated_Source\PSoC4/ble_eventHandler.c ****         CyBle_AioscNotificationEventHandler(eventParam);
 796:Generated_Source\PSoC4/ble_eventHandler.c ****     }
 797:Generated_Source\PSoC4/ble_eventHandler.c **** #endif /* CYBLE_AIOS_CLIENT */
 798:Generated_Source\PSoC4/ble_eventHandler.c **** #ifdef CYBLE_ANCS_CLIENT
 799:Generated_Source\PSoC4/ble_eventHandler.c ****     CyBle_AncscNotificationEventHandler(eventParam);
 800:Generated_Source\PSoC4/ble_eventHandler.c **** #endif /* CYBLE_ANCS_CLIENT */
 801:Generated_Source\PSoC4/ble_eventHandler.c **** #ifdef CYBLE_ANS_CLIENT
 802:Generated_Source\PSoC4/ble_eventHandler.c ****     if((cyBle_eventHandlerFlag & CYBLE_CALLBACK) != 0u)
 803:Generated_Source\PSoC4/ble_eventHandler.c ****     {
 804:Generated_Source\PSoC4/ble_eventHandler.c ****         CyBle_AnscNotificationEventHandler(eventParam);
 805:Generated_Source\PSoC4/ble_eventHandler.c ****     }
 806:Generated_Source\PSoC4/ble_eventHandler.c **** #endif /* CYBLE_ANS_CLIENT */
 807:Generated_Source\PSoC4/ble_eventHandler.c **** #ifdef CYBLE_BAS_CLIENT
 808:Generated_Source\PSoC4/ble_eventHandler.c ****     if((cyBle_eventHandlerFlag & CYBLE_CALLBACK) != 0u)
 809:Generated_Source\PSoC4/ble_eventHandler.c ****     {
 810:Generated_Source\PSoC4/ble_eventHandler.c ****         CyBle_BascNotificationEventHandler(eventParam);
 811:Generated_Source\PSoC4/ble_eventHandler.c ****     }
 812:Generated_Source\PSoC4/ble_eventHandler.c **** #endif /* CYBLE_BAS_CLIENT */
 813:Generated_Source\PSoC4/ble_eventHandler.c **** #ifdef CYBLE_BLS_CLIENT
 814:Generated_Source\PSoC4/ble_eventHandler.c ****     if((cyBle_eventHandlerFlag & CYBLE_CALLBACK) != 0u)
 815:Generated_Source\PSoC4/ble_eventHandler.c ****     {
 816:Generated_Source\PSoC4/ble_eventHandler.c ****         CyBle_BlscNotificationEventHandler(eventParam);
 817:Generated_Source\PSoC4/ble_eventHandler.c ****     }
 818:Generated_Source\PSoC4/ble_eventHandler.c **** #endif /* CYBLE_BLS_CLIENT */
 819:Generated_Source\PSoC4/ble_eventHandler.c **** #ifdef CYBLE_CGMS_CLIENT
 820:Generated_Source\PSoC4/ble_eventHandler.c ****     if((cyBle_eventHandlerFlag & CYBLE_CALLBACK) != 0u)
 821:Generated_Source\PSoC4/ble_eventHandler.c ****     {
 822:Generated_Source\PSoC4/ble_eventHandler.c ****         CyBle_CgmscNotificationEventHandler(eventParam);
 823:Generated_Source\PSoC4/ble_eventHandler.c ****     }
 824:Generated_Source\PSoC4/ble_eventHandler.c **** #endif /* CYBLE_CGMS_CLIENT */
 825:Generated_Source\PSoC4/ble_eventHandler.c **** #ifdef CYBLE_CPS_CLIENT
 826:Generated_Source\PSoC4/ble_eventHandler.c ****     if((cyBle_eventHandlerFlag & CYBLE_CALLBACK) != 0u)
 827:Generated_Source\PSoC4/ble_eventHandler.c ****     {
 828:Generated_Source\PSoC4/ble_eventHandler.c ****         CyBle_CpscNotificationEventHandler(eventParam);
 829:Generated_Source\PSoC4/ble_eventHandler.c ****     }
ARM GAS  C:\Users\owono\AppData\Local\Temp\ccFLv7mf.s 			page 16


 830:Generated_Source\PSoC4/ble_eventHandler.c **** #endif /* CYBLE_CPS_CLIENT */
 831:Generated_Source\PSoC4/ble_eventHandler.c **** #ifdef CYBLE_CSCS_CLIENT
 832:Generated_Source\PSoC4/ble_eventHandler.c ****     if((cyBle_eventHandlerFlag & CYBLE_CALLBACK) != 0u)
 833:Generated_Source\PSoC4/ble_eventHandler.c ****     {
 834:Generated_Source\PSoC4/ble_eventHandler.c ****         CyBle_CscscNotificationEventHandler(eventParam);
 835:Generated_Source\PSoC4/ble_eventHandler.c ****     }
 836:Generated_Source\PSoC4/ble_eventHandler.c **** #endif /* CYBLE_CSCS_CLIENT */
 837:Generated_Source\PSoC4/ble_eventHandler.c **** #ifdef CYBLE_CTS_CLIENT
 838:Generated_Source\PSoC4/ble_eventHandler.c ****     if((cyBle_eventHandlerFlag & CYBLE_CALLBACK) != 0u)
 839:Generated_Source\PSoC4/ble_eventHandler.c ****     {
 840:Generated_Source\PSoC4/ble_eventHandler.c ****         CyBle_CtscNotificationEventHandler(eventParam);
 841:Generated_Source\PSoC4/ble_eventHandler.c ****     }
 842:Generated_Source\PSoC4/ble_eventHandler.c **** #endif /* CYBLE_CTS_CLIENT */
 843:Generated_Source\PSoC4/ble_eventHandler.c **** #ifdef CYBLE_ESS_CLIENT
 844:Generated_Source\PSoC4/ble_eventHandler.c ****     if((cyBle_eventHandlerFlag & CYBLE_CALLBACK) != 0u)
 845:Generated_Source\PSoC4/ble_eventHandler.c ****     {
 846:Generated_Source\PSoC4/ble_eventHandler.c ****         CyBle_EsscNotificationEventHandler(eventParam);
 847:Generated_Source\PSoC4/ble_eventHandler.c ****     }
 848:Generated_Source\PSoC4/ble_eventHandler.c **** #endif /* CYBLE_ESS_CLIENT */
 849:Generated_Source\PSoC4/ble_eventHandler.c **** #ifdef CYBLE_GLS_CLIENT
 850:Generated_Source\PSoC4/ble_eventHandler.c ****     if((cyBle_eventHandlerFlag & CYBLE_CALLBACK) != 0u)
 851:Generated_Source\PSoC4/ble_eventHandler.c ****     {
 852:Generated_Source\PSoC4/ble_eventHandler.c ****         CyBle_GlscNotificationEventHandler(eventParam);
 853:Generated_Source\PSoC4/ble_eventHandler.c ****     }
 854:Generated_Source\PSoC4/ble_eventHandler.c **** #endif /* CYBLE_GLS_CLIENT */
 855:Generated_Source\PSoC4/ble_eventHandler.c **** #ifdef CYBLE_HIDS_CLIENT
 856:Generated_Source\PSoC4/ble_eventHandler.c ****     if((cyBle_eventHandlerFlag & CYBLE_CALLBACK) != 0u)
 857:Generated_Source\PSoC4/ble_eventHandler.c ****     {
 858:Generated_Source\PSoC4/ble_eventHandler.c ****         CyBle_HidscNotificationEventHandler(eventParam);
 859:Generated_Source\PSoC4/ble_eventHandler.c ****     }
 860:Generated_Source\PSoC4/ble_eventHandler.c **** #endif /* CYBLE_HIDS_CLIENT */
 861:Generated_Source\PSoC4/ble_eventHandler.c **** #ifdef CYBLE_HPS_CLIENT
 862:Generated_Source\PSoC4/ble_eventHandler.c ****     if((cyBle_eventHandlerFlag & CYBLE_CALLBACK) != 0u)
 863:Generated_Source\PSoC4/ble_eventHandler.c ****     {
 864:Generated_Source\PSoC4/ble_eventHandler.c ****         CyBle_HpscNotificationEventHandler(eventParam);
 865:Generated_Source\PSoC4/ble_eventHandler.c ****     }
 866:Generated_Source\PSoC4/ble_eventHandler.c **** #endif /* CYBLE_HPS_CLIENT */
 867:Generated_Source\PSoC4/ble_eventHandler.c **** #ifdef CYBLE_HRS_CLIENT
 868:Generated_Source\PSoC4/ble_eventHandler.c ****     if((cyBle_eventHandlerFlag & CYBLE_CALLBACK) != 0u)
 869:Generated_Source\PSoC4/ble_eventHandler.c ****     {
 870:Generated_Source\PSoC4/ble_eventHandler.c ****         CyBle_HrscNotificationEventHandler(eventParam);
 871:Generated_Source\PSoC4/ble_eventHandler.c ****     }
 872:Generated_Source\PSoC4/ble_eventHandler.c **** #endif /* CYBLE_HRS_CLIENT */
 873:Generated_Source\PSoC4/ble_eventHandler.c **** #ifdef CYBLE_HTS_CLIENT
 874:Generated_Source\PSoC4/ble_eventHandler.c ****     if((cyBle_eventHandlerFlag & CYBLE_CALLBACK) != 0u)
 875:Generated_Source\PSoC4/ble_eventHandler.c ****     {
 876:Generated_Source\PSoC4/ble_eventHandler.c ****         CyBle_HtscNotificationEventHandler(eventParam);
 877:Generated_Source\PSoC4/ble_eventHandler.c ****     }
 878:Generated_Source\PSoC4/ble_eventHandler.c **** #endif /* CYBLE_HTS_CLIENT */
 879:Generated_Source\PSoC4/ble_eventHandler.c **** #ifdef CYBLE_LNS_CLIENT
 880:Generated_Source\PSoC4/ble_eventHandler.c ****     if((cyBle_eventHandlerFlag & CYBLE_CALLBACK) != 0u)
 881:Generated_Source\PSoC4/ble_eventHandler.c ****     {
 882:Generated_Source\PSoC4/ble_eventHandler.c ****         CyBle_LnscNotificationEventHandler(eventParam);
 883:Generated_Source\PSoC4/ble_eventHandler.c ****     }
 884:Generated_Source\PSoC4/ble_eventHandler.c **** #endif /* CYBLE_LNS_CLIENT */
 885:Generated_Source\PSoC4/ble_eventHandler.c **** #ifdef CYBLE_PASS_CLIENT
 886:Generated_Source\PSoC4/ble_eventHandler.c ****     if((cyBle_eventHandlerFlag & CYBLE_CALLBACK) != 0u)
ARM GAS  C:\Users\owono\AppData\Local\Temp\ccFLv7mf.s 			page 17


 887:Generated_Source\PSoC4/ble_eventHandler.c ****     {
 888:Generated_Source\PSoC4/ble_eventHandler.c ****         CyBle_PasscNotificationEventHandler(eventParam);
 889:Generated_Source\PSoC4/ble_eventHandler.c ****     }
 890:Generated_Source\PSoC4/ble_eventHandler.c **** #endif /* CYBLE_PASS_CLIENT */
 891:Generated_Source\PSoC4/ble_eventHandler.c **** #ifdef CYBLE_RSCS_CLIENT
 892:Generated_Source\PSoC4/ble_eventHandler.c ****     if((cyBle_eventHandlerFlag & CYBLE_CALLBACK) != 0u)
 893:Generated_Source\PSoC4/ble_eventHandler.c ****     {
 894:Generated_Source\PSoC4/ble_eventHandler.c ****         CyBle_RscscNotificationEventHandler(eventParam);
 895:Generated_Source\PSoC4/ble_eventHandler.c ****     }
 896:Generated_Source\PSoC4/ble_eventHandler.c **** #endif /* CYBLE_RSCS_CLIENT */
 897:Generated_Source\PSoC4/ble_eventHandler.c **** #ifdef CYBLE_SCPS_CLIENT
 898:Generated_Source\PSoC4/ble_eventHandler.c ****     if((cyBle_eventHandlerFlag & CYBLE_CALLBACK) != 0u)
 899:Generated_Source\PSoC4/ble_eventHandler.c ****     {
 900:Generated_Source\PSoC4/ble_eventHandler.c ****         CyBle_ScpscNotificationEventHandler(eventParam);
 901:Generated_Source\PSoC4/ble_eventHandler.c ****     }
 902:Generated_Source\PSoC4/ble_eventHandler.c **** #endif /* CYBLE_SCPS_CLIENT */
 903:Generated_Source\PSoC4/ble_eventHandler.c **** #ifdef CYBLE_TPS_CLIENT
 904:Generated_Source\PSoC4/ble_eventHandler.c ****     if((cyBle_eventHandlerFlag & CYBLE_CALLBACK) != 0u)
 905:Generated_Source\PSoC4/ble_eventHandler.c ****     {
 906:Generated_Source\PSoC4/ble_eventHandler.c ****         CyBle_TpscNotificationEventHandler(eventParam);
 907:Generated_Source\PSoC4/ble_eventHandler.c ****     }
 908:Generated_Source\PSoC4/ble_eventHandler.c **** #endif /* CYBLE_TPS_CLIENT */
 909:Generated_Source\PSoC4/ble_eventHandler.c **** #ifdef CYBLE_UDS_CLIENT
 910:Generated_Source\PSoC4/ble_eventHandler.c ****     if((cyBle_eventHandlerFlag & CYBLE_CALLBACK) != 0u)
 911:Generated_Source\PSoC4/ble_eventHandler.c ****     {
 912:Generated_Source\PSoC4/ble_eventHandler.c ****         CyBle_UdscNotificationEventHandler(eventParam);
 913:Generated_Source\PSoC4/ble_eventHandler.c ****     }
 914:Generated_Source\PSoC4/ble_eventHandler.c **** #endif /* CYBLE_UDS_CLIENT */
 915:Generated_Source\PSoC4/ble_eventHandler.c **** #ifdef CYBLE_WPTS_CLIENT
 916:Generated_Source\PSoC4/ble_eventHandler.c ****     if((cyBle_eventHandlerFlag & CYBLE_CALLBACK) != 0u)
 917:Generated_Source\PSoC4/ble_eventHandler.c ****     {
 918:Generated_Source\PSoC4/ble_eventHandler.c ****         CyBle_WptscNotificationEventHandler(eventParam);
 919:Generated_Source\PSoC4/ble_eventHandler.c ****     }
 920:Generated_Source\PSoC4/ble_eventHandler.c **** #endif /* CYBLE_WPTS_CLIENT */
 921:Generated_Source\PSoC4/ble_eventHandler.c **** }
 922:Generated_Source\PSoC4/ble_eventHandler.c **** 
 923:Generated_Source\PSoC4/ble_eventHandler.c **** 
 924:Generated_Source\PSoC4/ble_eventHandler.c **** /******************************************************************************    
 925:Generated_Source\PSoC4/ble_eventHandler.c **** * Function Name: CyBle_IndicationEventHandler
 926:Generated_Source\PSoC4/ble_eventHandler.c **** ***************************************************************************//**
 927:Generated_Source\PSoC4/ble_eventHandler.c **** * 
 928:Generated_Source\PSoC4/ble_eventHandler.c **** *  Handles the Indication event from BLE stack.
 929:Generated_Source\PSoC4/ble_eventHandler.c **** * 
 930:Generated_Source\PSoC4/ble_eventHandler.c **** *  \param eventParam: event parameter
 931:Generated_Source\PSoC4/ble_eventHandler.c **** * 
 932:Generated_Source\PSoC4/ble_eventHandler.c **** * \return
 933:Generated_Source\PSoC4/ble_eventHandler.c **** *  None
 934:Generated_Source\PSoC4/ble_eventHandler.c **** * 
 935:Generated_Source\PSoC4/ble_eventHandler.c **** ******************************************************************************/
 936:Generated_Source\PSoC4/ble_eventHandler.c **** static void CyBle_IndicationEventHandler(CYBLE_GATTC_HANDLE_VALUE_IND_PARAM_T *eventParam)
 937:Generated_Source\PSoC4/ble_eventHandler.c **** {
 938:Generated_Source\PSoC4/ble_eventHandler.c **** #ifdef CYBLE_AIOS_CLIENT
 939:Generated_Source\PSoC4/ble_eventHandler.c ****     if((cyBle_eventHandlerFlag & CYBLE_CALLBACK) != 0u)
 940:Generated_Source\PSoC4/ble_eventHandler.c ****     {
 941:Generated_Source\PSoC4/ble_eventHandler.c ****         CyBle_AioscIndicationEventHandler(eventParam);
 942:Generated_Source\PSoC4/ble_eventHandler.c ****     }
 943:Generated_Source\PSoC4/ble_eventHandler.c **** #endif /* CYBLE_AIOS_CLIENT */
ARM GAS  C:\Users\owono\AppData\Local\Temp\ccFLv7mf.s 			page 18


 944:Generated_Source\PSoC4/ble_eventHandler.c **** #ifdef CYBLE_BCS_CLIENT
 945:Generated_Source\PSoC4/ble_eventHandler.c ****     if((cyBle_eventHandlerFlag & CYBLE_CALLBACK) != 0u)
 946:Generated_Source\PSoC4/ble_eventHandler.c ****     {
 947:Generated_Source\PSoC4/ble_eventHandler.c ****         CyBle_BcscIndicationEventHandler(eventParam);
 948:Generated_Source\PSoC4/ble_eventHandler.c ****     }
 949:Generated_Source\PSoC4/ble_eventHandler.c **** #endif /* CYBLE_BCS_CLIENT */
 950:Generated_Source\PSoC4/ble_eventHandler.c **** #ifdef CYBLE_BLS_CLIENT
 951:Generated_Source\PSoC4/ble_eventHandler.c ****     if((cyBle_eventHandlerFlag & CYBLE_CALLBACK) != 0u)
 952:Generated_Source\PSoC4/ble_eventHandler.c ****     {
 953:Generated_Source\PSoC4/ble_eventHandler.c ****         CyBle_BlscIndicationEventHandler(eventParam);
 954:Generated_Source\PSoC4/ble_eventHandler.c ****     }
 955:Generated_Source\PSoC4/ble_eventHandler.c **** #endif /* CYBLE_BLS_CLIENT */
 956:Generated_Source\PSoC4/ble_eventHandler.c **** #ifdef CYBLE_CGMS_CLIENT
 957:Generated_Source\PSoC4/ble_eventHandler.c ****     if((cyBle_eventHandlerFlag & CYBLE_CALLBACK) != 0u)
 958:Generated_Source\PSoC4/ble_eventHandler.c ****     {
 959:Generated_Source\PSoC4/ble_eventHandler.c ****         CyBle_CgmscIndicationEventHandler(eventParam);
 960:Generated_Source\PSoC4/ble_eventHandler.c ****     }
 961:Generated_Source\PSoC4/ble_eventHandler.c **** #endif /* CYBLE_CGMS_CLIENT */
 962:Generated_Source\PSoC4/ble_eventHandler.c **** #ifdef CYBLE_CPS_CLIENT
 963:Generated_Source\PSoC4/ble_eventHandler.c ****     if((cyBle_eventHandlerFlag & CYBLE_CALLBACK) != 0u)
 964:Generated_Source\PSoC4/ble_eventHandler.c ****     {
 965:Generated_Source\PSoC4/ble_eventHandler.c ****         CyBle_CpscIndicationEventHandler(eventParam);
 966:Generated_Source\PSoC4/ble_eventHandler.c ****     }
 967:Generated_Source\PSoC4/ble_eventHandler.c **** #endif /* CYBLE_CPS_CLIENT */
 968:Generated_Source\PSoC4/ble_eventHandler.c **** #ifdef CYBLE_CSCS_CLIENT
 969:Generated_Source\PSoC4/ble_eventHandler.c ****     if((cyBle_eventHandlerFlag & CYBLE_CALLBACK) != 0u)
 970:Generated_Source\PSoC4/ble_eventHandler.c ****     {
 971:Generated_Source\PSoC4/ble_eventHandler.c ****         CyBle_CscscIndicationEventHandler(eventParam);
 972:Generated_Source\PSoC4/ble_eventHandler.c ****     }
 973:Generated_Source\PSoC4/ble_eventHandler.c **** #endif /* CYBLE_CSCS_CLIENT */
 974:Generated_Source\PSoC4/ble_eventHandler.c **** #ifdef CYBLE_ESS_CLIENT
 975:Generated_Source\PSoC4/ble_eventHandler.c ****     if((cyBle_eventHandlerFlag & CYBLE_CALLBACK) != 0u)
 976:Generated_Source\PSoC4/ble_eventHandler.c ****     {
 977:Generated_Source\PSoC4/ble_eventHandler.c ****         CyBle_EsscIndicationEventHandler(eventParam);
 978:Generated_Source\PSoC4/ble_eventHandler.c ****     }
 979:Generated_Source\PSoC4/ble_eventHandler.c **** #endif /* CYBLE_ESS_CLIENT */
 980:Generated_Source\PSoC4/ble_eventHandler.c **** #ifdef CYBLE_GLS_CLIENT
 981:Generated_Source\PSoC4/ble_eventHandler.c ****     if((cyBle_eventHandlerFlag & CYBLE_CALLBACK) != 0u)
 982:Generated_Source\PSoC4/ble_eventHandler.c ****     {
 983:Generated_Source\PSoC4/ble_eventHandler.c ****         CyBle_GlscIndicationEventHandler(eventParam);
 984:Generated_Source\PSoC4/ble_eventHandler.c ****     }
 985:Generated_Source\PSoC4/ble_eventHandler.c **** #endif /* CYBLE_GLS_CLIENT */
 986:Generated_Source\PSoC4/ble_eventHandler.c **** #ifdef CYBLE_HTS_CLIENT
 987:Generated_Source\PSoC4/ble_eventHandler.c ****     if((cyBle_eventHandlerFlag & CYBLE_CALLBACK) != 0u)
 988:Generated_Source\PSoC4/ble_eventHandler.c ****     {
 989:Generated_Source\PSoC4/ble_eventHandler.c ****         CyBle_HtscIndicationEventHandler(eventParam);
 990:Generated_Source\PSoC4/ble_eventHandler.c ****     }
 991:Generated_Source\PSoC4/ble_eventHandler.c **** #endif /* CYBLE_HTS_CLIENT */
 992:Generated_Source\PSoC4/ble_eventHandler.c **** #ifdef CYBLE_LNS_CLIENT
 993:Generated_Source\PSoC4/ble_eventHandler.c ****     if((cyBle_eventHandlerFlag & CYBLE_CALLBACK) != 0u)
 994:Generated_Source\PSoC4/ble_eventHandler.c ****     {
 995:Generated_Source\PSoC4/ble_eventHandler.c ****         CyBle_LnscIndicationEventHandler(eventParam);
 996:Generated_Source\PSoC4/ble_eventHandler.c ****     }
 997:Generated_Source\PSoC4/ble_eventHandler.c **** #endif /* CYBLE_LNS_CLIENT */
 998:Generated_Source\PSoC4/ble_eventHandler.c **** #ifdef CYBLE_RSCS_CLIENT
 999:Generated_Source\PSoC4/ble_eventHandler.c ****     if((cyBle_eventHandlerFlag & CYBLE_CALLBACK) != 0u)
1000:Generated_Source\PSoC4/ble_eventHandler.c ****     {
ARM GAS  C:\Users\owono\AppData\Local\Temp\ccFLv7mf.s 			page 19


1001:Generated_Source\PSoC4/ble_eventHandler.c ****         CyBle_RscscIndicationEventHandler(eventParam);
1002:Generated_Source\PSoC4/ble_eventHandler.c ****     }
1003:Generated_Source\PSoC4/ble_eventHandler.c **** #endif /* CYBLE_RSCS_CLIENT */
1004:Generated_Source\PSoC4/ble_eventHandler.c **** #ifdef CYBLE_UDS_CLIENT
1005:Generated_Source\PSoC4/ble_eventHandler.c ****     if((cyBle_eventHandlerFlag & CYBLE_CALLBACK) != 0u)
1006:Generated_Source\PSoC4/ble_eventHandler.c ****     {
1007:Generated_Source\PSoC4/ble_eventHandler.c ****         CyBle_UdscIndicationEventHandler(eventParam);
1008:Generated_Source\PSoC4/ble_eventHandler.c ****     }
1009:Generated_Source\PSoC4/ble_eventHandler.c **** #endif /* CYBLE_UDS_CLIENT */
1010:Generated_Source\PSoC4/ble_eventHandler.c **** #ifdef CYBLE_WPTS_CLIENT
1011:Generated_Source\PSoC4/ble_eventHandler.c ****     if((cyBle_eventHandlerFlag & CYBLE_CALLBACK) != 0u)
1012:Generated_Source\PSoC4/ble_eventHandler.c ****     {
1013:Generated_Source\PSoC4/ble_eventHandler.c ****         CyBle_WptscIndicationEventHandler(eventParam);
1014:Generated_Source\PSoC4/ble_eventHandler.c ****     }
1015:Generated_Source\PSoC4/ble_eventHandler.c **** #endif /* CYBLE_WPTS_CLIENT */
1016:Generated_Source\PSoC4/ble_eventHandler.c **** #ifdef CYBLE_WSS_CLIENT
1017:Generated_Source\PSoC4/ble_eventHandler.c ****     if((cyBle_eventHandlerFlag & CYBLE_CALLBACK) != 0u)
1018:Generated_Source\PSoC4/ble_eventHandler.c ****     {
1019:Generated_Source\PSoC4/ble_eventHandler.c ****         CyBle_WsscIndicationEventHandler(eventParam);
1020:Generated_Source\PSoC4/ble_eventHandler.c ****     }
1021:Generated_Source\PSoC4/ble_eventHandler.c **** #endif /* CYBLE_WSS_CLIENT */
1022:Generated_Source\PSoC4/ble_eventHandler.c **** }
1023:Generated_Source\PSoC4/ble_eventHandler.c **** 
1024:Generated_Source\PSoC4/ble_eventHandler.c **** /******************************************************************************    
1025:Generated_Source\PSoC4/ble_eventHandler.c **** * Function Name: CyBle_ReadResponseEventHandler
1026:Generated_Source\PSoC4/ble_eventHandler.c **** ***************************************************************************//**
1027:Generated_Source\PSoC4/ble_eventHandler.c **** * 
1028:Generated_Source\PSoC4/ble_eventHandler.c **** *  Handles the Read Response event from BLE stack.
1029:Generated_Source\PSoC4/ble_eventHandler.c **** * 
1030:Generated_Source\PSoC4/ble_eventHandler.c **** *  \param eventParam: event parameter
1031:Generated_Source\PSoC4/ble_eventHandler.c **** * 
1032:Generated_Source\PSoC4/ble_eventHandler.c **** * \return
1033:Generated_Source\PSoC4/ble_eventHandler.c **** *  None
1034:Generated_Source\PSoC4/ble_eventHandler.c **** * 
1035:Generated_Source\PSoC4/ble_eventHandler.c **** ******************************************************************************/
1036:Generated_Source\PSoC4/ble_eventHandler.c **** static void CyBle_ReadResponseEventHandler(CYBLE_GATTC_READ_RSP_PARAM_T *eventParam)
1037:Generated_Source\PSoC4/ble_eventHandler.c **** {
1038:Generated_Source\PSoC4/ble_eventHandler.c **** #ifdef CYBLE_CUSTOM_CLIENT
1039:Generated_Source\PSoC4/ble_eventHandler.c ****     /* Read response with 128-bit included service uuid */
1040:Generated_Source\PSoC4/ble_eventHandler.c ****     if((CyBle_GetClientState() == CYBLE_CLIENT_STATE_INCL_DISCOVERING) &&
1041:Generated_Source\PSoC4/ble_eventHandler.c ****        (cyBle_discInclInfo.inclDefHandle != 0u))
1042:Generated_Source\PSoC4/ble_eventHandler.c ****     {
1043:Generated_Source\PSoC4/ble_eventHandler.c ****         CYBLE_DISC_SRVC128_INFO_T discServInfo;
1044:Generated_Source\PSoC4/ble_eventHandler.c **** 
1045:Generated_Source\PSoC4/ble_eventHandler.c ****         /* Store service range */
1046:Generated_Source\PSoC4/ble_eventHandler.c ****         discServInfo.range = cyBle_discInclInfo.inclHandleRange;
1047:Generated_Source\PSoC4/ble_eventHandler.c ****         (void)memcpy((void *) discServInfo.uuid.uuid128.value, (void *)eventParam->value.val, event
1048:Generated_Source\PSoC4/ble_eventHandler.c ****         CyBle_CustomcDiscoverServiceEventHandler(&discServInfo);
1049:Generated_Source\PSoC4/ble_eventHandler.c ****         
1050:Generated_Source\PSoC4/ble_eventHandler.c ****         /* Re-initiate CyBle_GattcFindIncludedServices function, setting the start
1051:Generated_Source\PSoC4/ble_eventHandler.c ****            handle to the attribute handle which is placed next to the one used in
1052:Generated_Source\PSoC4/ble_eventHandler.c ****            the above step.
1053:Generated_Source\PSoC4/ble_eventHandler.c ****         */
1054:Generated_Source\PSoC4/ble_eventHandler.c ****         discServInfo.range.startHandle = cyBle_discInclInfo.inclDefHandle + 1u;
1055:Generated_Source\PSoC4/ble_eventHandler.c ****         discServInfo.range.endHandle = cyBle_serverInfo[cyBle_disCount].range.endHandle;
1056:Generated_Source\PSoC4/ble_eventHandler.c ****         if(discServInfo.range.startHandle <= discServInfo.range.endHandle)
1057:Generated_Source\PSoC4/ble_eventHandler.c ****         {
ARM GAS  C:\Users\owono\AppData\Local\Temp\ccFLv7mf.s 			page 20


1058:Generated_Source\PSoC4/ble_eventHandler.c ****             if(CYBLE_ERROR_OK != CyBle_GattcFindIncludedServices(cyBle_connHandle, &discServInfo.ra
1059:Generated_Source\PSoC4/ble_eventHandler.c ****             {
1060:Generated_Source\PSoC4/ble_eventHandler.c ****                 CyBle_ApplCallback(CYBLE_EVT_GATTC_INCL_DISCOVERY_FAILED, NULL);
1061:Generated_Source\PSoC4/ble_eventHandler.c ****                 cyBle_eventHandlerFlag &= (uint8)~CYBLE_AUTO_DISCOVERY;
1062:Generated_Source\PSoC4/ble_eventHandler.c ****             }
1063:Generated_Source\PSoC4/ble_eventHandler.c ****         }
1064:Generated_Source\PSoC4/ble_eventHandler.c ****         else /* Continue discovery of the following service */
1065:Generated_Source\PSoC4/ble_eventHandler.c ****         {
1066:Generated_Source\PSoC4/ble_eventHandler.c ****             CyBle_NextInclDiscovery(CYBLE_DISCOVERY_CONTINUE);
1067:Generated_Source\PSoC4/ble_eventHandler.c ****         }
1068:Generated_Source\PSoC4/ble_eventHandler.c ****         
1069:Generated_Source\PSoC4/ble_eventHandler.c ****         cyBle_eventHandlerFlag &= (uint8)~CYBLE_CALLBACK;
1070:Generated_Source\PSoC4/ble_eventHandler.c ****     #ifdef CYBLE_CUSTOM_CLIENT
1071:Generated_Source\PSoC4/ble_eventHandler.c ****         cyBle_discInclInfo.inclDefHandle = 0u;
1072:Generated_Source\PSoC4/ble_eventHandler.c ****     #endif /* CYBLE_CUSTOM_CLIENT */
1073:Generated_Source\PSoC4/ble_eventHandler.c ****     }
1074:Generated_Source\PSoC4/ble_eventHandler.c **** #endif /* CYBLE_CUSTOM_CLIENT */
1075:Generated_Source\PSoC4/ble_eventHandler.c **** #ifdef CYBLE_AIOS_CLIENT
1076:Generated_Source\PSoC4/ble_eventHandler.c ****     if((cyBle_eventHandlerFlag & CYBLE_CALLBACK) != 0u)
1077:Generated_Source\PSoC4/ble_eventHandler.c ****     {
1078:Generated_Source\PSoC4/ble_eventHandler.c ****         CyBle_AioscReadResponseEventHandler(eventParam);
1079:Generated_Source\PSoC4/ble_eventHandler.c ****     }
1080:Generated_Source\PSoC4/ble_eventHandler.c **** #endif /* CYBLE_AIOS_CLIENT */
1081:Generated_Source\PSoC4/ble_eventHandler.c **** #ifdef CYBLE_ANCS_CLIENT
1082:Generated_Source\PSoC4/ble_eventHandler.c ****     if((cyBle_eventHandlerFlag & CYBLE_CALLBACK) != 0u)
1083:Generated_Source\PSoC4/ble_eventHandler.c ****     {
1084:Generated_Source\PSoC4/ble_eventHandler.c ****         CyBle_AncscReadResponseEventHandler(eventParam);
1085:Generated_Source\PSoC4/ble_eventHandler.c ****     }
1086:Generated_Source\PSoC4/ble_eventHandler.c **** #endif /* CYBLE_ANCS_CLIENT */
1087:Generated_Source\PSoC4/ble_eventHandler.c **** #ifdef CYBLE_ANS_CLIENT
1088:Generated_Source\PSoC4/ble_eventHandler.c ****     if((cyBle_eventHandlerFlag & CYBLE_CALLBACK) != 0u)
1089:Generated_Source\PSoC4/ble_eventHandler.c ****     {
1090:Generated_Source\PSoC4/ble_eventHandler.c ****         CyBle_AnscReadResponseEventHandler(eventParam);
1091:Generated_Source\PSoC4/ble_eventHandler.c ****     }
1092:Generated_Source\PSoC4/ble_eventHandler.c **** #endif /* CYBLE_ANS_CLIENT */
1093:Generated_Source\PSoC4/ble_eventHandler.c **** #ifdef CYBLE_BAS_CLIENT
1094:Generated_Source\PSoC4/ble_eventHandler.c ****     if((cyBle_eventHandlerFlag & CYBLE_CALLBACK) != 0u)
1095:Generated_Source\PSoC4/ble_eventHandler.c ****     {
1096:Generated_Source\PSoC4/ble_eventHandler.c ****         CyBle_BascReadResponseEventHandler(eventParam);
1097:Generated_Source\PSoC4/ble_eventHandler.c ****     }
1098:Generated_Source\PSoC4/ble_eventHandler.c **** #endif /* CYBLE_BAS_CLIENT */
1099:Generated_Source\PSoC4/ble_eventHandler.c **** #ifdef CYBLE_BLS_CLIENT
1100:Generated_Source\PSoC4/ble_eventHandler.c ****     if((cyBle_eventHandlerFlag & CYBLE_CALLBACK) != 0u)
1101:Generated_Source\PSoC4/ble_eventHandler.c ****     {
1102:Generated_Source\PSoC4/ble_eventHandler.c ****         CyBle_BlscReadResponseEventHandler(eventParam);
1103:Generated_Source\PSoC4/ble_eventHandler.c ****     }
1104:Generated_Source\PSoC4/ble_eventHandler.c **** #endif /* CYBLE_BLS_CLIENT */
1105:Generated_Source\PSoC4/ble_eventHandler.c **** #ifdef CYBLE_BCS_CLIENT
1106:Generated_Source\PSoC4/ble_eventHandler.c ****     if((cyBle_eventHandlerFlag & CYBLE_CALLBACK) != 0u)
1107:Generated_Source\PSoC4/ble_eventHandler.c ****     {
1108:Generated_Source\PSoC4/ble_eventHandler.c ****         CyBle_BcscReadResponseEventHandler(eventParam);
1109:Generated_Source\PSoC4/ble_eventHandler.c ****     }
1110:Generated_Source\PSoC4/ble_eventHandler.c **** #endif /* CYBLE_BCS_CLIENT */
1111:Generated_Source\PSoC4/ble_eventHandler.c **** #ifdef CYBLE_BMS_CLIENT
1112:Generated_Source\PSoC4/ble_eventHandler.c ****     if((cyBle_eventHandlerFlag & CYBLE_CALLBACK) != 0u)
1113:Generated_Source\PSoC4/ble_eventHandler.c ****     {
1114:Generated_Source\PSoC4/ble_eventHandler.c ****         CyBle_BmscReadResponseEventHandler(eventParam);
ARM GAS  C:\Users\owono\AppData\Local\Temp\ccFLv7mf.s 			page 21


1115:Generated_Source\PSoC4/ble_eventHandler.c ****     }
1116:Generated_Source\PSoC4/ble_eventHandler.c **** #endif /* CYBLE_BMS_CLIENT */
1117:Generated_Source\PSoC4/ble_eventHandler.c **** #ifdef CYBLE_CGMS_CLIENT
1118:Generated_Source\PSoC4/ble_eventHandler.c ****     if((cyBle_eventHandlerFlag & CYBLE_CALLBACK) != 0u)
1119:Generated_Source\PSoC4/ble_eventHandler.c ****     {
1120:Generated_Source\PSoC4/ble_eventHandler.c ****         CyBle_CgmscReadResponseEventHandler(eventParam);
1121:Generated_Source\PSoC4/ble_eventHandler.c ****     }
1122:Generated_Source\PSoC4/ble_eventHandler.c **** #endif /* CYBLE_CGMS_CLIENT */
1123:Generated_Source\PSoC4/ble_eventHandler.c **** #ifdef CYBLE_CPS_CLIENT
1124:Generated_Source\PSoC4/ble_eventHandler.c ****     if((cyBle_eventHandlerFlag & CYBLE_CALLBACK) != 0u)
1125:Generated_Source\PSoC4/ble_eventHandler.c ****     {
1126:Generated_Source\PSoC4/ble_eventHandler.c ****         CyBle_CpscReadResponseEventHandler(eventParam);
1127:Generated_Source\PSoC4/ble_eventHandler.c ****     }
1128:Generated_Source\PSoC4/ble_eventHandler.c **** #endif /* CYBLE_CPS_CLIENT */
1129:Generated_Source\PSoC4/ble_eventHandler.c **** #ifdef CYBLE_CSCS_CLIENT
1130:Generated_Source\PSoC4/ble_eventHandler.c ****     if((cyBle_eventHandlerFlag & CYBLE_CALLBACK) != 0u)
1131:Generated_Source\PSoC4/ble_eventHandler.c ****     {
1132:Generated_Source\PSoC4/ble_eventHandler.c ****         CyBle_CscscReadResponseEventHandler(eventParam);
1133:Generated_Source\PSoC4/ble_eventHandler.c ****     }
1134:Generated_Source\PSoC4/ble_eventHandler.c **** #endif /* CYBLE_CSCS_CLIENT */
1135:Generated_Source\PSoC4/ble_eventHandler.c **** #ifdef CYBLE_CTS_CLIENT
1136:Generated_Source\PSoC4/ble_eventHandler.c ****     if((cyBle_eventHandlerFlag & CYBLE_CALLBACK) != 0u)
1137:Generated_Source\PSoC4/ble_eventHandler.c ****     {
1138:Generated_Source\PSoC4/ble_eventHandler.c ****         CyBle_CtscReadResponseEventHandler(eventParam);
1139:Generated_Source\PSoC4/ble_eventHandler.c ****     }
1140:Generated_Source\PSoC4/ble_eventHandler.c **** #endif /* CYBLE_BAS_CLIENT */
1141:Generated_Source\PSoC4/ble_eventHandler.c **** #ifdef CYBLE_DIS_CLIENT
1142:Generated_Source\PSoC4/ble_eventHandler.c ****     if((cyBle_eventHandlerFlag & CYBLE_CALLBACK) != 0u)
1143:Generated_Source\PSoC4/ble_eventHandler.c ****     {
1144:Generated_Source\PSoC4/ble_eventHandler.c ****         CyBle_DiscReadResponseEventHandler(eventParam);
1145:Generated_Source\PSoC4/ble_eventHandler.c ****     }
1146:Generated_Source\PSoC4/ble_eventHandler.c **** #endif /* CYBLE_DIS_CLIENT */
1147:Generated_Source\PSoC4/ble_eventHandler.c **** #ifdef CYBLE_ESS_CLIENT
1148:Generated_Source\PSoC4/ble_eventHandler.c ****     if((cyBle_eventHandlerFlag & CYBLE_CALLBACK) != 0u)
1149:Generated_Source\PSoC4/ble_eventHandler.c ****     {
1150:Generated_Source\PSoC4/ble_eventHandler.c ****         CyBle_EsscReadResponseEventHandler(eventParam);
1151:Generated_Source\PSoC4/ble_eventHandler.c ****     }
1152:Generated_Source\PSoC4/ble_eventHandler.c **** #endif /* CYBLE_ESS_CLIENT */
1153:Generated_Source\PSoC4/ble_eventHandler.c **** #ifdef CYBLE_GLS_CLIENT
1154:Generated_Source\PSoC4/ble_eventHandler.c ****     if((cyBle_eventHandlerFlag & CYBLE_CALLBACK) != 0u)
1155:Generated_Source\PSoC4/ble_eventHandler.c ****     {
1156:Generated_Source\PSoC4/ble_eventHandler.c ****         CyBle_GlscReadResponseEventHandler(eventParam);
1157:Generated_Source\PSoC4/ble_eventHandler.c ****     }
1158:Generated_Source\PSoC4/ble_eventHandler.c **** #endif /* CYBLE_GLS_CLIENT */
1159:Generated_Source\PSoC4/ble_eventHandler.c **** #ifdef CYBLE_HIDS_CLIENT
1160:Generated_Source\PSoC4/ble_eventHandler.c ****     if((cyBle_eventHandlerFlag & CYBLE_CALLBACK) != 0u)
1161:Generated_Source\PSoC4/ble_eventHandler.c ****     {
1162:Generated_Source\PSoC4/ble_eventHandler.c ****         CyBle_HidscReadResponseEventHandler(eventParam);
1163:Generated_Source\PSoC4/ble_eventHandler.c ****     }
1164:Generated_Source\PSoC4/ble_eventHandler.c **** #endif /* CYBLE_HIDS_CLIENT */
1165:Generated_Source\PSoC4/ble_eventHandler.c **** #ifdef CYBLE_HPS_CLIENT
1166:Generated_Source\PSoC4/ble_eventHandler.c ****     if((cyBle_eventHandlerFlag & CYBLE_CALLBACK) != 0u)
1167:Generated_Source\PSoC4/ble_eventHandler.c ****     {
1168:Generated_Source\PSoC4/ble_eventHandler.c ****         CyBle_HpscReadResponseEventHandler(eventParam);
1169:Generated_Source\PSoC4/ble_eventHandler.c ****     }
1170:Generated_Source\PSoC4/ble_eventHandler.c **** #endif /* CYBLE_HPS_CLIENT */
1171:Generated_Source\PSoC4/ble_eventHandler.c **** #ifdef CYBLE_HRS_CLIENT
ARM GAS  C:\Users\owono\AppData\Local\Temp\ccFLv7mf.s 			page 22


1172:Generated_Source\PSoC4/ble_eventHandler.c ****     if((cyBle_eventHandlerFlag & CYBLE_CALLBACK) != 0u)
1173:Generated_Source\PSoC4/ble_eventHandler.c ****     {
1174:Generated_Source\PSoC4/ble_eventHandler.c ****         CyBle_HrscReadResponseEventHandler(eventParam);
1175:Generated_Source\PSoC4/ble_eventHandler.c ****     }
1176:Generated_Source\PSoC4/ble_eventHandler.c **** #endif /* CYBLE_HRS_CLIENT */
1177:Generated_Source\PSoC4/ble_eventHandler.c **** #ifdef CYBLE_HTS_CLIENT
1178:Generated_Source\PSoC4/ble_eventHandler.c ****     if((cyBle_eventHandlerFlag & CYBLE_CALLBACK) != 0u)
1179:Generated_Source\PSoC4/ble_eventHandler.c ****     {
1180:Generated_Source\PSoC4/ble_eventHandler.c ****         CyBle_HtscReadResponseEventHandler(eventParam);
1181:Generated_Source\PSoC4/ble_eventHandler.c ****     }
1182:Generated_Source\PSoC4/ble_eventHandler.c **** #endif /* CYBLE_HTS_CLIENT */
1183:Generated_Source\PSoC4/ble_eventHandler.c **** #ifdef CYBLE_IPS_CLIENT
1184:Generated_Source\PSoC4/ble_eventHandler.c ****     if((cyBle_eventHandlerFlag & CYBLE_CALLBACK) != 0u)
1185:Generated_Source\PSoC4/ble_eventHandler.c ****     {
1186:Generated_Source\PSoC4/ble_eventHandler.c ****         CyBle_IpscReadResponseEventHandler(eventParam);
1187:Generated_Source\PSoC4/ble_eventHandler.c ****     }
1188:Generated_Source\PSoC4/ble_eventHandler.c **** #endif /* CYBLE_IPS_CLIENT */
1189:Generated_Source\PSoC4/ble_eventHandler.c **** #ifdef CYBLE_LLS_CLIENT
1190:Generated_Source\PSoC4/ble_eventHandler.c ****     if((cyBle_eventHandlerFlag & CYBLE_CALLBACK) != 0u)
1191:Generated_Source\PSoC4/ble_eventHandler.c ****     {
1192:Generated_Source\PSoC4/ble_eventHandler.c ****         CyBle_LlscReadResponseEventHandler(eventParam);
1193:Generated_Source\PSoC4/ble_eventHandler.c ****     }
1194:Generated_Source\PSoC4/ble_eventHandler.c **** #endif /* CYBLE_LLS_CLIENT */
1195:Generated_Source\PSoC4/ble_eventHandler.c **** #ifdef CYBLE_LNS_CLIENT
1196:Generated_Source\PSoC4/ble_eventHandler.c ****     if((cyBle_eventHandlerFlag & CYBLE_CALLBACK) != 0u)
1197:Generated_Source\PSoC4/ble_eventHandler.c ****     {
1198:Generated_Source\PSoC4/ble_eventHandler.c ****         CyBle_LnscReadResponseEventHandler(eventParam);
1199:Generated_Source\PSoC4/ble_eventHandler.c ****     }
1200:Generated_Source\PSoC4/ble_eventHandler.c **** #endif /* CYBLE_LNS_CLIENT */
1201:Generated_Source\PSoC4/ble_eventHandler.c **** #ifdef CYBLE_NDCS_CLIENT
1202:Generated_Source\PSoC4/ble_eventHandler.c ****     if((cyBle_eventHandlerFlag & CYBLE_CALLBACK) != 0u)
1203:Generated_Source\PSoC4/ble_eventHandler.c ****     {
1204:Generated_Source\PSoC4/ble_eventHandler.c ****         CyBle_NdcscReadResponseEventHandler(eventParam);
1205:Generated_Source\PSoC4/ble_eventHandler.c ****     }
1206:Generated_Source\PSoC4/ble_eventHandler.c **** #endif /* CYBLE_NDCS_CLIENT */
1207:Generated_Source\PSoC4/ble_eventHandler.c **** #ifdef CYBLE_PASS_CLIENT
1208:Generated_Source\PSoC4/ble_eventHandler.c ****     if((cyBle_eventHandlerFlag & CYBLE_CALLBACK) != 0u)
1209:Generated_Source\PSoC4/ble_eventHandler.c ****     {
1210:Generated_Source\PSoC4/ble_eventHandler.c ****         CyBle_PasscReadResponseEventHandler(eventParam);
1211:Generated_Source\PSoC4/ble_eventHandler.c ****     }
1212:Generated_Source\PSoC4/ble_eventHandler.c **** #endif /* CYBLE_PASS_CLIENT */
1213:Generated_Source\PSoC4/ble_eventHandler.c **** #ifdef CYBLE_PLXS_CLIENT
1214:Generated_Source\PSoC4/ble_eventHandler.c ****     if((cyBle_eventHandlerFlag & CYBLE_CALLBACK) != 0u)
1215:Generated_Source\PSoC4/ble_eventHandler.c ****     {
1216:Generated_Source\PSoC4/ble_eventHandler.c ****         CyBle_PlxscReadResponseEventHandler(eventParam);
1217:Generated_Source\PSoC4/ble_eventHandler.c ****     }
1218:Generated_Source\PSoC4/ble_eventHandler.c **** #endif /* CYBLE_PLXS_CLIENT */
1219:Generated_Source\PSoC4/ble_eventHandler.c **** #ifdef CYBLE_RSCS_CLIENT
1220:Generated_Source\PSoC4/ble_eventHandler.c ****     if((cyBle_eventHandlerFlag & CYBLE_CALLBACK) != 0u)
1221:Generated_Source\PSoC4/ble_eventHandler.c ****     {
1222:Generated_Source\PSoC4/ble_eventHandler.c ****         CyBle_RscscReadResponseEventHandler(eventParam);
1223:Generated_Source\PSoC4/ble_eventHandler.c ****     }
1224:Generated_Source\PSoC4/ble_eventHandler.c **** #endif /* CYBLE_RSCS_CLIENT */
1225:Generated_Source\PSoC4/ble_eventHandler.c **** #ifdef CYBLE_RTUS_CLIENT
1226:Generated_Source\PSoC4/ble_eventHandler.c ****     if((cyBle_eventHandlerFlag & CYBLE_CALLBACK) != 0u)
1227:Generated_Source\PSoC4/ble_eventHandler.c ****     {
1228:Generated_Source\PSoC4/ble_eventHandler.c ****         CyBle_RtuscReadResponseEventHandler(eventParam);
ARM GAS  C:\Users\owono\AppData\Local\Temp\ccFLv7mf.s 			page 23


1229:Generated_Source\PSoC4/ble_eventHandler.c ****     }
1230:Generated_Source\PSoC4/ble_eventHandler.c **** #endif /* CYBLE_RTUS_CLIENT */
1231:Generated_Source\PSoC4/ble_eventHandler.c **** #ifdef CYBLE_SCPS_CLIENT
1232:Generated_Source\PSoC4/ble_eventHandler.c ****     if((cyBle_eventHandlerFlag & CYBLE_CALLBACK) != 0u)
1233:Generated_Source\PSoC4/ble_eventHandler.c ****     {
1234:Generated_Source\PSoC4/ble_eventHandler.c ****         CyBle_ScpscReadResponseEventHandler(eventParam);
1235:Generated_Source\PSoC4/ble_eventHandler.c ****     }
1236:Generated_Source\PSoC4/ble_eventHandler.c **** #endif /* CYBLE_SCPS_CLIENT */
1237:Generated_Source\PSoC4/ble_eventHandler.c **** #ifdef CYBLE_TPS_CLIENT
1238:Generated_Source\PSoC4/ble_eventHandler.c ****     if((cyBle_eventHandlerFlag & CYBLE_CALLBACK) != 0u)
1239:Generated_Source\PSoC4/ble_eventHandler.c ****     {
1240:Generated_Source\PSoC4/ble_eventHandler.c ****         CyBle_TpscReadResponseEventHandler(eventParam);
1241:Generated_Source\PSoC4/ble_eventHandler.c ****     }
1242:Generated_Source\PSoC4/ble_eventHandler.c **** #endif /* CYBLE_TPS_CLIENT */
1243:Generated_Source\PSoC4/ble_eventHandler.c **** #ifdef CYBLE_UDS_CLIENT
1244:Generated_Source\PSoC4/ble_eventHandler.c ****     if((cyBle_eventHandlerFlag & CYBLE_CALLBACK) != 0u)
1245:Generated_Source\PSoC4/ble_eventHandler.c ****     {
1246:Generated_Source\PSoC4/ble_eventHandler.c ****         CyBle_UdscReadResponseEventHandler(eventParam);
1247:Generated_Source\PSoC4/ble_eventHandler.c ****     }
1248:Generated_Source\PSoC4/ble_eventHandler.c **** #endif /* CYBLE_UDS_CLIENT */
1249:Generated_Source\PSoC4/ble_eventHandler.c **** #ifdef CYBLE_WPTS_CLIENT
1250:Generated_Source\PSoC4/ble_eventHandler.c ****     if((cyBle_eventHandlerFlag & CYBLE_CALLBACK) != 0u)
1251:Generated_Source\PSoC4/ble_eventHandler.c ****     {
1252:Generated_Source\PSoC4/ble_eventHandler.c ****         CyBle_WptscReadResponseEventHandler(eventParam);
1253:Generated_Source\PSoC4/ble_eventHandler.c ****     }
1254:Generated_Source\PSoC4/ble_eventHandler.c **** #endif /* CYBLE_WPTS_CLIENT */
1255:Generated_Source\PSoC4/ble_eventHandler.c **** #ifdef CYBLE_WSS_CLIENT
1256:Generated_Source\PSoC4/ble_eventHandler.c ****     if((cyBle_eventHandlerFlag & CYBLE_CALLBACK) != 0u)
1257:Generated_Source\PSoC4/ble_eventHandler.c ****     {
1258:Generated_Source\PSoC4/ble_eventHandler.c ****         CyBle_WsscReadResponseEventHandler(eventParam);
1259:Generated_Source\PSoC4/ble_eventHandler.c ****     }
1260:Generated_Source\PSoC4/ble_eventHandler.c **** #endif /* CYBLE_WSS_CLIENT */
1261:Generated_Source\PSoC4/ble_eventHandler.c **** }
1262:Generated_Source\PSoC4/ble_eventHandler.c **** 
1263:Generated_Source\PSoC4/ble_eventHandler.c **** /******************************************************************************    
1264:Generated_Source\PSoC4/ble_eventHandler.c **** * Function Name: CyBle_ReadMultipleResponseEventHandler
1265:Generated_Source\PSoC4/ble_eventHandler.c **** ***************************************************************************//**
1266:Generated_Source\PSoC4/ble_eventHandler.c **** * 
1267:Generated_Source\PSoC4/ble_eventHandler.c **** *  Handles the Read Multiple Response event from BLE stack.
1268:Generated_Source\PSoC4/ble_eventHandler.c **** * 
1269:Generated_Source\PSoC4/ble_eventHandler.c **** *  \param eventParam: event parameter
1270:Generated_Source\PSoC4/ble_eventHandler.c **** * 
1271:Generated_Source\PSoC4/ble_eventHandler.c **** * \return
1272:Generated_Source\PSoC4/ble_eventHandler.c **** *  None
1273:Generated_Source\PSoC4/ble_eventHandler.c **** * 
1274:Generated_Source\PSoC4/ble_eventHandler.c **** ******************************************************************************/
1275:Generated_Source\PSoC4/ble_eventHandler.c **** static void CyBle_ReadMultipleResponseEventHandler(CYBLE_GATTC_READ_RSP_PARAM_T *eventParam)
1276:Generated_Source\PSoC4/ble_eventHandler.c **** {
1277:Generated_Source\PSoC4/ble_eventHandler.c **** #ifdef CYBLE_CUSTOM_CLIENT
1278:Generated_Source\PSoC4/ble_eventHandler.c ****     /* Read response with 128-bit included service uuid */
1279:Generated_Source\PSoC4/ble_eventHandler.c ****     if((CYBLE_CLIENT_STATE_INCL_DISCOVERING == CyBle_GetClientState()) &&
1280:Generated_Source\PSoC4/ble_eventHandler.c ****        (cyBle_discInclInfo.inclDefHandle != 0u))
1281:Generated_Source\PSoC4/ble_eventHandler.c ****     {
1282:Generated_Source\PSoC4/ble_eventHandler.c ****         CYBLE_DISC_SRVC128_INFO_T discServInfo;
1283:Generated_Source\PSoC4/ble_eventHandler.c **** 
1284:Generated_Source\PSoC4/ble_eventHandler.c ****         /* Store service range */
1285:Generated_Source\PSoC4/ble_eventHandler.c ****         discServInfo.range = cyBle_discInclInfo.inclHandleRange;
ARM GAS  C:\Users\owono\AppData\Local\Temp\ccFLv7mf.s 			page 24


1286:Generated_Source\PSoC4/ble_eventHandler.c ****         (void)memcpy((void *) discServInfo.uuid.uuid128.value, (void *)eventParam->value.val, event
1287:Generated_Source\PSoC4/ble_eventHandler.c ****         CyBle_CustomcDiscoverServiceEventHandler(&discServInfo);
1288:Generated_Source\PSoC4/ble_eventHandler.c ****         
1289:Generated_Source\PSoC4/ble_eventHandler.c ****         /* Re-initiate CyBle_GattcFindIncludedServices function, setting the start
1290:Generated_Source\PSoC4/ble_eventHandler.c ****            handle to the attribute handle which is placed next to the one used in
1291:Generated_Source\PSoC4/ble_eventHandler.c ****            the above step.
1292:Generated_Source\PSoC4/ble_eventHandler.c ****         */
1293:Generated_Source\PSoC4/ble_eventHandler.c ****         discServInfo.range.startHandle = cyBle_discInclInfo.inclDefHandle + 1;
1294:Generated_Source\PSoC4/ble_eventHandler.c ****         discServInfo.range.endHandle = cyBle_serverInfo[cyBle_disCount].range.endHandle;
1295:Generated_Source\PSoC4/ble_eventHandler.c ****         if(discServInfo.range.startHandle <= discServInfo.range.endHandle)
1296:Generated_Source\PSoC4/ble_eventHandler.c ****         {
1297:Generated_Source\PSoC4/ble_eventHandler.c ****             if(CYBLE_ERROR_OK != CyBle_GattcFindIncludedServices(cyBle_connHandle, &discServInfo.ra
1298:Generated_Source\PSoC4/ble_eventHandler.c ****             {
1299:Generated_Source\PSoC4/ble_eventHandler.c ****                 CyBle_ApplCallback(CYBLE_EVT_GATTC_INCL_DISCOVERY_FAILED, NULL);
1300:Generated_Source\PSoC4/ble_eventHandler.c ****                 cyBle_eventHandlerFlag &= (uint8)~CYBLE_AUTO_DISCOVERY;
1301:Generated_Source\PSoC4/ble_eventHandler.c ****             }
1302:Generated_Source\PSoC4/ble_eventHandler.c ****         }
1303:Generated_Source\PSoC4/ble_eventHandler.c ****         else /* Continue discovery of the following service */
1304:Generated_Source\PSoC4/ble_eventHandler.c ****         {
1305:Generated_Source\PSoC4/ble_eventHandler.c ****             CyBle_NextInclDiscovery(CYBLE_DISCOVERY_CONTINUE);
1306:Generated_Source\PSoC4/ble_eventHandler.c ****         }
1307:Generated_Source\PSoC4/ble_eventHandler.c ****         
1308:Generated_Source\PSoC4/ble_eventHandler.c ****         cyBle_eventHandlerFlag &= (uint8)~CYBLE_CALLBACK;
1309:Generated_Source\PSoC4/ble_eventHandler.c ****     #ifdef CYBLE_CUSTOM_CLIENT
1310:Generated_Source\PSoC4/ble_eventHandler.c ****         cyBle_discInclInfo.inclDefHandle = 0u;
1311:Generated_Source\PSoC4/ble_eventHandler.c ****     #endif /* CYBLE_CUSTOM_CLIENT */
1312:Generated_Source\PSoC4/ble_eventHandler.c ****     }
1313:Generated_Source\PSoC4/ble_eventHandler.c **** #endif /* CYBLE_CUSTOM_CLIENT */
1314:Generated_Source\PSoC4/ble_eventHandler.c **** #ifdef CYBLE_IPS_CLIENT
1315:Generated_Source\PSoC4/ble_eventHandler.c ****     if((cyBle_eventHandlerFlag & CYBLE_CALLBACK) != 0u)
1316:Generated_Source\PSoC4/ble_eventHandler.c ****     {
1317:Generated_Source\PSoC4/ble_eventHandler.c ****         CyBle_IpscReadMultipleResponseEventHandler(eventParam);
1318:Generated_Source\PSoC4/ble_eventHandler.c ****     }
1319:Generated_Source\PSoC4/ble_eventHandler.c **** #endif /* CYBLE_IPS_CLIENT */
1320:Generated_Source\PSoC4/ble_eventHandler.c ****     /* MISRA 16.7 violation workaround */
1321:Generated_Source\PSoC4/ble_eventHandler.c ****     eventParam = eventParam;
1322:Generated_Source\PSoC4/ble_eventHandler.c **** }
1323:Generated_Source\PSoC4/ble_eventHandler.c **** #endif /* CYBLE_GATT_ROLE_CLIENT */
1324:Generated_Source\PSoC4/ble_eventHandler.c **** 
1325:Generated_Source\PSoC4/ble_eventHandler.c **** 
1326:Generated_Source\PSoC4/ble_eventHandler.c **** /****************************************************************************** 
1327:Generated_Source\PSoC4/ble_eventHandler.c **** * Function Name: CyBle_DisconnectEventHandler
1328:Generated_Source\PSoC4/ble_eventHandler.c **** ***************************************************************************//**
1329:Generated_Source\PSoC4/ble_eventHandler.c **** * 
1330:Generated_Source\PSoC4/ble_eventHandler.c **** *  Handles the GATT Disconnection event from the BLE stack.
1331:Generated_Source\PSoC4/ble_eventHandler.c **** * 
1332:Generated_Source\PSoC4/ble_eventHandler.c **** * \return
1333:Generated_Source\PSoC4/ble_eventHandler.c **** *  None
1334:Generated_Source\PSoC4/ble_eventHandler.c **** * 
1335:Generated_Source\PSoC4/ble_eventHandler.c **** ******************************************************************************/
1336:Generated_Source\PSoC4/ble_eventHandler.c **** static void CyBle_GattDisconnectEventHandler(void)
1337:Generated_Source\PSoC4/ble_eventHandler.c **** {
  27              		.loc 1 1337 0
  28              		.cfi_startproc
  29              		@ args = 0, pretend = 0, frame = 0
  30              		@ frame_needed = 0, uses_anonymous_args = 0
  31              		@ link register save eliminated.
ARM GAS  C:\Users\owono\AppData\Local\Temp\ccFLv7mf.s 			page 25


1338:Generated_Source\PSoC4/ble_eventHandler.c ****     cyBle_connHandle.attId = 0u;
  32              		.loc 1 1338 0
  33 0000 024B     		ldr	r3, .L2
  34 0002 0022     		movs	r2, #0
  35 0004 5A70     		strb	r2, [r3, #1]
1339:Generated_Source\PSoC4/ble_eventHandler.c ****     cyBle_connHandle.bdHandle = 0u;
  36              		.loc 1 1339 0
  37 0006 1A70     		strb	r2, [r3]
1340:Generated_Source\PSoC4/ble_eventHandler.c ****     
1341:Generated_Source\PSoC4/ble_eventHandler.c ****     #if (CYBLE_GATT_ROLE_CLIENT)
1342:Generated_Source\PSoC4/ble_eventHandler.c ****         if(CyBle_GetClientState() == CYBLE_CLIENT_STATE_DISCOVERED)
1343:Generated_Source\PSoC4/ble_eventHandler.c ****         {
1344:Generated_Source\PSoC4/ble_eventHandler.c ****             CyBle_SetClientState(CYBLE_CLIENT_STATE_DISCONNECTED_DISCOVERED);
1345:Generated_Source\PSoC4/ble_eventHandler.c ****         }
1346:Generated_Source\PSoC4/ble_eventHandler.c ****         else
1347:Generated_Source\PSoC4/ble_eventHandler.c ****         {
1348:Generated_Source\PSoC4/ble_eventHandler.c ****             CyBle_SetClientState(CYBLE_CLIENT_STATE_DISCONNECTED);
1349:Generated_Source\PSoC4/ble_eventHandler.c ****         }
1350:Generated_Source\PSoC4/ble_eventHandler.c ****     #endif /* CYBLE_GATT_ROLE_CLIENT */
1351:Generated_Source\PSoC4/ble_eventHandler.c ****         
1352:Generated_Source\PSoC4/ble_eventHandler.c ****     #ifdef CYBLE_CPS_SERVER
1353:Generated_Source\PSoC4/ble_eventHandler.c ****         #if CYBLE_GAP_ROLE_BROADCASTER
1354:Generated_Source\PSoC4/ble_eventHandler.c ****             CyBle_CpssDisconnectEventHandler();
1355:Generated_Source\PSoC4/ble_eventHandler.c ****         #endif /* CYBLE_GAP_ROLE_BROADCASTER */
1356:Generated_Source\PSoC4/ble_eventHandler.c ****     #endif /* CYBLE_CPS_SERVER */
1357:Generated_Source\PSoC4/ble_eventHandler.c **** 
1358:Generated_Source\PSoC4/ble_eventHandler.c ****     #ifdef CYBLE_CPS_CLIENT
1359:Generated_Source\PSoC4/ble_eventHandler.c ****         CyBle_CpscDisconnectEventHandler();
1360:Generated_Source\PSoC4/ble_eventHandler.c ****     #endif /* CYBLE_CPS_CLIENT */
1361:Generated_Source\PSoC4/ble_eventHandler.c **** 
1362:Generated_Source\PSoC4/ble_eventHandler.c ****     #ifdef CYBLE_IAS_SERVER
1363:Generated_Source\PSoC4/ble_eventHandler.c ****         CyBle_IassDisconnectEventHandler();
1364:Generated_Source\PSoC4/ble_eventHandler.c ****     #endif /* CYBLE_IAS_SERVER */
1365:Generated_Source\PSoC4/ble_eventHandler.c ****     
1366:Generated_Source\PSoC4/ble_eventHandler.c ****     #ifdef CYBLE_GLS_SERVER
1367:Generated_Source\PSoC4/ble_eventHandler.c ****         CyBle_GlsInit();
1368:Generated_Source\PSoC4/ble_eventHandler.c ****     #endif /* CYBLE_GLS_SERVER */
1369:Generated_Source\PSoC4/ble_eventHandler.c ****     
1370:Generated_Source\PSoC4/ble_eventHandler.c ****     #ifdef CYBLE_LNS_SERVER
1371:Generated_Source\PSoC4/ble_eventHandler.c ****         CyBle_LnsInit();
1372:Generated_Source\PSoC4/ble_eventHandler.c ****     #endif /* CYBLE_LNS_SERVER */
1373:Generated_Source\PSoC4/ble_eventHandler.c ****     
1374:Generated_Source\PSoC4/ble_eventHandler.c ****     #ifdef CYBLE_UDS_SERVER
1375:Generated_Source\PSoC4/ble_eventHandler.c ****         CyBle_UdsInit();
1376:Generated_Source\PSoC4/ble_eventHandler.c ****     #endif /* CYBLE_UDS_SERVER */
1377:Generated_Source\PSoC4/ble_eventHandler.c **** }
  38              		.loc 1 1377 0
  39              		@ sp needed
  40 0008 7047     		bx	lr
  41              	.L3:
  42 000a C046     		.align	2
  43              	.L2:
  44 000c 00000000 		.word	cyBle_connHandle
  45              		.cfi_endproc
  46              	.LFE4:
  47              		.size	CyBle_GattDisconnectEventHandler, .-CyBle_GattDisconnectEventHandler
  48              		.section	.text.CyBle_WriteReqHandler,"ax",%progbits
ARM GAS  C:\Users\owono\AppData\Local\Temp\ccFLv7mf.s 			page 26


  49              		.align	2
  50              		.code	16
  51              		.thumb_func
  52              		.type	CyBle_WriteReqHandler, %function
  53              	CyBle_WriteReqHandler:
  54              	.LFB2:
 250:Generated_Source\PSoC4/ble_eventHandler.c ****     CYBLE_GATT_ERR_CODE_T gattErr;
  55              		.loc 1 250 0
  56              		.cfi_startproc
  57              		@ args = 0, pretend = 0, frame = 8
  58              		@ frame_needed = 0, uses_anonymous_args = 0
  59              	.LVL0:
  60 0000 10B5     		push	{r4, lr}
  61              		.cfi_def_cfa_offset 8
  62              		.cfi_offset 4, -8
  63              		.cfi_offset 14, -4
  64 0002 82B0     		sub	sp, sp, #8
  65              		.cfi_def_cfa_offset 16
  66 0004 0400     		movs	r4, r0
 256:Generated_Source\PSoC4/ble_eventHandler.c **** #ifdef CYBLE_AIOS_SERVER
  67              		.loc 1 256 0
  68 0006 FFF7FEFF 		bl	CyBle_GattsWriteEventHandler
  69              	.LVL1:
 433:Generated_Source\PSoC4/ble_eventHandler.c ****     {
  70              		.loc 1 433 0
  71 000a 0A4B     		ldr	r3, .L7
  72 000c 1B78     		ldrb	r3, [r3]
  73 000e DB07     		lsls	r3, r3, #31
  74 0010 0ED4     		bmi	.L4
 435:Generated_Source\PSoC4/ble_eventHandler.c ****         {
  75              		.loc 1 435 0
  76 0012 0028     		cmp	r0, #0
  77 0014 09D0     		beq	.L6
  78              	.LBB2:
 439:Generated_Source\PSoC4/ble_eventHandler.c ****             err_param.attrHandle = eventParam->handleValPair.attrHandle;
  79              		.loc 1 439 0
  80 0016 01A9     		add	r1, sp, #4
  81 0018 1223     		movs	r3, #18
  82 001a 8B70     		strb	r3, [r1, #2]
 440:Generated_Source\PSoC4/ble_eventHandler.c ****             err_param.errorCode = gattErr;
  83              		.loc 1 440 0
  84 001c A389     		ldrh	r3, [r4, #12]
  85 001e 0B80     		strh	r3, [r1]
 441:Generated_Source\PSoC4/ble_eventHandler.c **** 
  86              		.loc 1 441 0
  87 0020 C870     		strb	r0, [r1, #3]
 444:Generated_Source\PSoC4/ble_eventHandler.c ****         }
  88              		.loc 1 444 0
  89 0022 2068     		ldr	r0, [r4]
  90              	.LVL2:
  91 0024 FFF7FEFF 		bl	CyBle_GattsErrorRsp
  92              	.LVL3:
  93              	.LBE2:
  94 0028 02E0     		b	.L4
  95              	.LVL4:
  96              	.L6:
 448:Generated_Source\PSoC4/ble_eventHandler.c ****         }
ARM GAS  C:\Users\owono\AppData\Local\Temp\ccFLv7mf.s 			page 27


  97              		.loc 1 448 0
  98 002a 2068     		ldr	r0, [r4]
  99              	.LVL5:
 100 002c FFF7FEFF 		bl	CyBle_GattsWriteRsp
 101              	.LVL6:
 102              	.L4:
 451:Generated_Source\PSoC4/ble_eventHandler.c **** 
 103              		.loc 1 451 0
 104 0030 02B0     		add	sp, sp, #8
 105              		@ sp needed
 106              	.LVL7:
 107 0032 10BD     		pop	{r4, pc}
 108              	.L8:
 109              		.align	2
 110              	.L7:
 111 0034 00000000 		.word	cyBle_eventHandlerFlag
 112              		.cfi_endproc
 113              	.LFE2:
 114              		.size	CyBle_WriteReqHandler, .-CyBle_WriteReqHandler
 115              		.section	.text.CyBle_IsDeviceAddressValid,"ax",%progbits
 116              		.align	2
 117              		.global	CyBle_IsDeviceAddressValid
 118              		.code	16
 119              		.thumb_func
 120              		.type	CyBle_IsDeviceAddressValid, %function
 121              	CyBle_IsDeviceAddressValid:
 122              	.LFB7:
1378:Generated_Source\PSoC4/ble_eventHandler.c **** 
1379:Generated_Source\PSoC4/ble_eventHandler.c **** 
1380:Generated_Source\PSoC4/ble_eventHandler.c **** /****************************************************************************** 
1381:Generated_Source\PSoC4/ble_eventHandler.c **** * Function Name: CyBle_TimeOutEventHandler
1382:Generated_Source\PSoC4/ble_eventHandler.c **** ***************************************************************************//**
1383:Generated_Source\PSoC4/ble_eventHandler.c **** * 
1384:Generated_Source\PSoC4/ble_eventHandler.c **** *  Handles the CYBLE_EVT_TIMEOUT event from the BLE stack.
1385:Generated_Source\PSoC4/ble_eventHandler.c **** * 
1386:Generated_Source\PSoC4/ble_eventHandler.c **** *  \param eventParam: The pointer to a structure of type CYBLE_TO_REASON_CODE_T.
1387:Generated_Source\PSoC4/ble_eventHandler.c **** * 
1388:Generated_Source\PSoC4/ble_eventHandler.c **** * \return
1389:Generated_Source\PSoC4/ble_eventHandler.c **** *  None
1390:Generated_Source\PSoC4/ble_eventHandler.c **** * 
1391:Generated_Source\PSoC4/ble_eventHandler.c **** ******************************************************************************/
1392:Generated_Source\PSoC4/ble_eventHandler.c **** static void CyBle_TimeOutEventHandler(const CYBLE_TO_REASON_CODE_T *eventParam)
1393:Generated_Source\PSoC4/ble_eventHandler.c **** {
1394:Generated_Source\PSoC4/ble_eventHandler.c ****     if(*eventParam == CYBLE_GATT_RSP_TO)
1395:Generated_Source\PSoC4/ble_eventHandler.c ****     {
1396:Generated_Source\PSoC4/ble_eventHandler.c ****     #if (CYBLE_GATT_ROLE_CLIENT)
1397:Generated_Source\PSoC4/ble_eventHandler.c ****         if((cyBle_eventHandlerFlag & CYBLE_AUTO_DISCOVERY) != 0u)
1398:Generated_Source\PSoC4/ble_eventHandler.c ****         {
1399:Generated_Source\PSoC4/ble_eventHandler.c ****             switch(CyBle_GetClientState())
1400:Generated_Source\PSoC4/ble_eventHandler.c ****             {
1401:Generated_Source\PSoC4/ble_eventHandler.c ****                 case CYBLE_CLIENT_STATE_SRVC_DISCOVERING:
1402:Generated_Source\PSoC4/ble_eventHandler.c ****                     CyBle_ApplCallback(CYBLE_EVT_GATTC_SRVC_DISCOVERY_FAILED, NULL);
1403:Generated_Source\PSoC4/ble_eventHandler.c ****                     break;
1404:Generated_Source\PSoC4/ble_eventHandler.c ****                 case CYBLE_CLIENT_STATE_INCL_DISCOVERING:
1405:Generated_Source\PSoC4/ble_eventHandler.c ****                     CyBle_ApplCallback(CYBLE_EVT_GATTC_INCL_DISCOVERY_FAILED, NULL);
1406:Generated_Source\PSoC4/ble_eventHandler.c ****                     break;
1407:Generated_Source\PSoC4/ble_eventHandler.c ****                 case CYBLE_CLIENT_STATE_CHAR_DISCOVERING:
ARM GAS  C:\Users\owono\AppData\Local\Temp\ccFLv7mf.s 			page 28


1408:Generated_Source\PSoC4/ble_eventHandler.c ****                     CyBle_ApplCallback(CYBLE_EVT_GATTC_CHAR_DISCOVERY_FAILED, NULL);
1409:Generated_Source\PSoC4/ble_eventHandler.c ****                     break;
1410:Generated_Source\PSoC4/ble_eventHandler.c ****                 case CYBLE_CLIENT_STATE_DESCR_DISCOVERING:
1411:Generated_Source\PSoC4/ble_eventHandler.c ****                     CyBle_ApplCallback(CYBLE_EVT_GATTC_DESCR_DISCOVERY_FAILED, NULL);
1412:Generated_Source\PSoC4/ble_eventHandler.c ****                     break;
1413:Generated_Source\PSoC4/ble_eventHandler.c ****                 default:        /* Other states should not be set in Auto discovery mode */
1414:Generated_Source\PSoC4/ble_eventHandler.c ****                     break;
1415:Generated_Source\PSoC4/ble_eventHandler.c ****             }
1416:Generated_Source\PSoC4/ble_eventHandler.c ****             cyBle_eventHandlerFlag &= (uint8)~CYBLE_AUTO_DISCOVERY;
1417:Generated_Source\PSoC4/ble_eventHandler.c ****             CyBle_SetClientState(CYBLE_CLIENT_STATE_CONNECTED);
1418:Generated_Source\PSoC4/ble_eventHandler.c ****         }
1419:Generated_Source\PSoC4/ble_eventHandler.c ****     #endif /* CYBLE_GATT_ROLE_CLIENT */
1420:Generated_Source\PSoC4/ble_eventHandler.c ****     #ifdef CYBLE_CPS_SERVER
1421:Generated_Source\PSoC4/ble_eventHandler.c ****         CyBle_CpssTimeOutEventHandler();
1422:Generated_Source\PSoC4/ble_eventHandler.c ****     #endif /* CYBLE_CPS_SERVER */
1423:Generated_Source\PSoC4/ble_eventHandler.c ****     }
1424:Generated_Source\PSoC4/ble_eventHandler.c ****     
1425:Generated_Source\PSoC4/ble_eventHandler.c ****     /* Connection procedure timeout */
1426:Generated_Source\PSoC4/ble_eventHandler.c ****     if(*eventParam == CYBLE_GENERIC_TO)
1427:Generated_Source\PSoC4/ble_eventHandler.c ****     {
1428:Generated_Source\PSoC4/ble_eventHandler.c ****     #if(CYBLE_GAP_ROLE_CENTRAL)
1429:Generated_Source\PSoC4/ble_eventHandler.c ****         if(CyBle_GetState() == CYBLE_STATE_CONNECTING)
1430:Generated_Source\PSoC4/ble_eventHandler.c ****         {
1431:Generated_Source\PSoC4/ble_eventHandler.c ****             (void)CyBle_GapcCancelDeviceConnection();
1432:Generated_Source\PSoC4/ble_eventHandler.c ****         }
1433:Generated_Source\PSoC4/ble_eventHandler.c ****     #endif /* CYBLE_GAP_ROLE_CENTRAL */
1434:Generated_Source\PSoC4/ble_eventHandler.c ****     }
1435:Generated_Source\PSoC4/ble_eventHandler.c **** }
1436:Generated_Source\PSoC4/ble_eventHandler.c **** 
1437:Generated_Source\PSoC4/ble_eventHandler.c **** 
1438:Generated_Source\PSoC4/ble_eventHandler.c **** /****************************************************************************** 
1439:Generated_Source\PSoC4/ble_eventHandler.c **** * Function Name: CyBle_GattConnectReqHandler
1440:Generated_Source\PSoC4/ble_eventHandler.c **** ***************************************************************************//**
1441:Generated_Source\PSoC4/ble_eventHandler.c **** * 
1442:Generated_Source\PSoC4/ble_eventHandler.c **** *  Handles the GATT connect event from the BLE stack.
1443:Generated_Source\PSoC4/ble_eventHandler.c **** * 
1444:Generated_Source\PSoC4/ble_eventHandler.c **** * \return
1445:Generated_Source\PSoC4/ble_eventHandler.c **** *  None
1446:Generated_Source\PSoC4/ble_eventHandler.c **** * 
1447:Generated_Source\PSoC4/ble_eventHandler.c **** ******************************************************************************/
1448:Generated_Source\PSoC4/ble_eventHandler.c **** static void CyBle_GattConnectReqHandler(void)
1449:Generated_Source\PSoC4/ble_eventHandler.c **** {
1450:Generated_Source\PSoC4/ble_eventHandler.c ****     #ifdef CYBLE_CGMS_SERVER
1451:Generated_Source\PSoC4/ble_eventHandler.c ****         CyBle_CgmsInit();
1452:Generated_Source\PSoC4/ble_eventHandler.c ****     #endif /* CYBLE_CGMS_SERVER */
1453:Generated_Source\PSoC4/ble_eventHandler.c ****     
1454:Generated_Source\PSoC4/ble_eventHandler.c ****     #ifdef CYBLE_CPS_SERVER
1455:Generated_Source\PSoC4/ble_eventHandler.c ****         CyBle_CpssConnectEventHandler();
1456:Generated_Source\PSoC4/ble_eventHandler.c ****     #endif /* CYBLE_CPS_SERVER */
1457:Generated_Source\PSoC4/ble_eventHandler.c ****     
1458:Generated_Source\PSoC4/ble_eventHandler.c ****     #ifdef CYBLE_CSCS_SERVER
1459:Generated_Source\PSoC4/ble_eventHandler.c ****             CyBle_CscsInit();
1460:Generated_Source\PSoC4/ble_eventHandler.c ****     #endif /* CYBLE_CSCS_SERVER */
1461:Generated_Source\PSoC4/ble_eventHandler.c ****     
1462:Generated_Source\PSoC4/ble_eventHandler.c ****     #ifdef CYBLE_LLS_SERVER
1463:Generated_Source\PSoC4/ble_eventHandler.c ****         CyBle_LlssConnectEventHandler();
1464:Generated_Source\PSoC4/ble_eventHandler.c ****     #endif /* CYBLE_LLS_SERVER */
ARM GAS  C:\Users\owono\AppData\Local\Temp\ccFLv7mf.s 			page 29


1465:Generated_Source\PSoC4/ble_eventHandler.c ****     
1466:Generated_Source\PSoC4/ble_eventHandler.c ****     #ifdef CYBLE_HIDS_SERVER
1467:Generated_Source\PSoC4/ble_eventHandler.c ****         CyBle_HidssOnDeviceConnected();
1468:Generated_Source\PSoC4/ble_eventHandler.c ****     #endif /* CYBLE_HIDS_SERVER */
1469:Generated_Source\PSoC4/ble_eventHandler.c **** 
1470:Generated_Source\PSoC4/ble_eventHandler.c ****     #ifdef CYBLE_RSCS_SERVER
1471:Generated_Source\PSoC4/ble_eventHandler.c ****         CyBle_RscsInit();
1472:Generated_Source\PSoC4/ble_eventHandler.c ****     #endif /* CYBLE_RSCS_SERVER */
1473:Generated_Source\PSoC4/ble_eventHandler.c **** }
1474:Generated_Source\PSoC4/ble_eventHandler.c **** 
1475:Generated_Source\PSoC4/ble_eventHandler.c **** 
1476:Generated_Source\PSoC4/ble_eventHandler.c **** #if (CYBLE_GATT_ROLE_SERVER || CYBLE_GATT_ROLE_CLIENT)
1477:Generated_Source\PSoC4/ble_eventHandler.c **** 
1478:Generated_Source\PSoC4/ble_eventHandler.c **** /****************************************************************************** 
1479:Generated_Source\PSoC4/ble_eventHandler.c **** * Function Name: CyBle_IsDeviceAddressValid
1480:Generated_Source\PSoC4/ble_eventHandler.c **** ***************************************************************************//**
1481:Generated_Source\PSoC4/ble_eventHandler.c **** * 
1482:Generated_Source\PSoC4/ble_eventHandler.c **** *  This function verifies that BLE public address has been programmed to SFLASH 
1483:Generated_Source\PSoC4/ble_eventHandler.c **** *  during manufacture. It could be used to verify if public device address is 
1484:Generated_Source\PSoC4/ble_eventHandler.c **** *  programmed to flash memory.
1485:Generated_Source\PSoC4/ble_eventHandler.c **** * 
1486:Generated_Source\PSoC4/ble_eventHandler.c **** *  \param deviceAddress: the pointer to the BD address of type CYBLE_GAP_BD_ADDR_T. 
1487:Generated_Source\PSoC4/ble_eventHandler.c **** * 
1488:Generated_Source\PSoC4/ble_eventHandler.c **** * \return
1489:Generated_Source\PSoC4/ble_eventHandler.c **** *  Non zero value when a device address differs from the default SFLASH content.
1490:Generated_Source\PSoC4/ble_eventHandler.c **** * 
1491:Generated_Source\PSoC4/ble_eventHandler.c **** ******************************************************************************/
1492:Generated_Source\PSoC4/ble_eventHandler.c **** uint8 CyBle_IsDeviceAddressValid(const CYBLE_GAP_BD_ADDR_T *deviceAddress)
1493:Generated_Source\PSoC4/ble_eventHandler.c **** {
 123              		.loc 1 1493 0
 124              		.cfi_startproc
 125              		@ args = 0, pretend = 0, frame = 0
 126              		@ frame_needed = 0, uses_anonymous_args = 0
 127              		@ link register save eliminated.
 128              	.LVL8:
1494:Generated_Source\PSoC4/ble_eventHandler.c ****     uint8 i;
1495:Generated_Source\PSoC4/ble_eventHandler.c ****     uint8 addressValid = 0u;
1496:Generated_Source\PSoC4/ble_eventHandler.c ****     
1497:Generated_Source\PSoC4/ble_eventHandler.c ****     if(deviceAddress -> type == CYBLE_GAP_ADDR_TYPE_PUBLIC)  
 129              		.loc 1 1497 0
 130 0000 8379     		ldrb	r3, [r0, #6]
 131 0002 002B     		cmp	r3, #0
 132 0004 07D0     		beq	.L13
1495:Generated_Source\PSoC4/ble_eventHandler.c ****     
 133              		.loc 1 1495 0
 134 0006 0020     		movs	r0, #0
 135              	.LVL9:
 136 0008 0BE0     		b	.L11
 137              	.LVL10:
 138              	.L12:
1498:Generated_Source\PSoC4/ble_eventHandler.c ****     {
1499:Generated_Source\PSoC4/ble_eventHandler.c ****         for(i = 0u; i < CYBLE_GAP_BD_ADDR_SIZE; i++)
1500:Generated_Source\PSoC4/ble_eventHandler.c ****         {
1501:Generated_Source\PSoC4/ble_eventHandler.c ****             if(deviceAddress->bdAddr[i] != 0u)
 139              		.loc 1 1501 0
 140 000a C25C     		ldrb	r2, [r0, r3]
 141 000c 002A     		cmp	r2, #0
ARM GAS  C:\Users\owono\AppData\Local\Temp\ccFLv7mf.s 			page 30


 142 000e 07D1     		bne	.L14
1499:Generated_Source\PSoC4/ble_eventHandler.c ****         {
 143              		.loc 1 1499 0 discriminator 2
 144 0010 0133     		adds	r3, r3, #1
 145              	.LVL11:
 146 0012 DBB2     		uxtb	r3, r3
 147              	.LVL12:
 148 0014 00E0     		b	.L10
 149              	.LVL13:
 150              	.L13:
 151 0016 0023     		movs	r3, #0
 152              	.L10:
 153              	.LVL14:
1499:Generated_Source\PSoC4/ble_eventHandler.c ****         {
 154              		.loc 1 1499 0 is_stmt 0 discriminator 1
 155 0018 052B     		cmp	r3, #5
 156 001a F6D9     		bls	.L12
1495:Generated_Source\PSoC4/ble_eventHandler.c ****     
 157              		.loc 1 1495 0 is_stmt 1
 158 001c 0020     		movs	r0, #0
 159              	.LVL15:
 160 001e 00E0     		b	.L11
 161              	.LVL16:
 162              	.L14:
1502:Generated_Source\PSoC4/ble_eventHandler.c ****             {
1503:Generated_Source\PSoC4/ble_eventHandler.c ****                 addressValid = 1u;
 163              		.loc 1 1503 0
 164 0020 0120     		movs	r0, #1
 165              	.LVL17:
 166              	.L11:
1504:Generated_Source\PSoC4/ble_eventHandler.c ****                 break;
1505:Generated_Source\PSoC4/ble_eventHandler.c ****             }
1506:Generated_Source\PSoC4/ble_eventHandler.c ****         }
1507:Generated_Source\PSoC4/ble_eventHandler.c ****     }
1508:Generated_Source\PSoC4/ble_eventHandler.c ****     return (addressValid);
1509:Generated_Source\PSoC4/ble_eventHandler.c **** }
 167              		.loc 1 1509 0
 168              		@ sp needed
 169 0022 7047     		bx	lr
 170              		.cfi_endproc
 171              	.LFE7:
 172              		.size	CyBle_IsDeviceAddressValid, .-CyBle_IsDeviceAddressValid
 173              		.section	.text.CyBle_EventHandler,"ax",%progbits
 174              		.align	2
 175              		.global	CyBle_EventHandler
 176              		.code	16
 177              		.thumb_func
 178              		.type	CyBle_EventHandler, %function
 179              	CyBle_EventHandler:
 180              	.LFB10:
1510:Generated_Source\PSoC4/ble_eventHandler.c **** #endif /* CYBLE_GATT_ROLE_SERVER || CYBLE_GATT_ROLE_CLIENT */
1511:Generated_Source\PSoC4/ble_eventHandler.c **** 
1512:Generated_Source\PSoC4/ble_eventHandler.c **** 
1513:Generated_Source\PSoC4/ble_eventHandler.c **** /****************************************************************************** 
1514:Generated_Source\PSoC4/ble_eventHandler.c **** * Function Name: CyBle_L2Cap_ConnParamUpdateRspHandler
1515:Generated_Source\PSoC4/ble_eventHandler.c **** ***************************************************************************//**
1516:Generated_Source\PSoC4/ble_eventHandler.c **** * 
ARM GAS  C:\Users\owono\AppData\Local\Temp\ccFLv7mf.s 			page 31


1517:Generated_Source\PSoC4/ble_eventHandler.c **** *  Handles the L2CAP connection parameter response event from
1518:Generated_Source\PSoC4/ble_eventHandler.c **** *  the BLE stack.
1519:Generated_Source\PSoC4/ble_eventHandler.c **** * 
1520:Generated_Source\PSoC4/ble_eventHandler.c **** *  \param response:
1521:Generated_Source\PSoC4/ble_eventHandler.c **** *      * Accepted = 0x0000
1522:Generated_Source\PSoC4/ble_eventHandler.c **** *      * Rejected = 0x0001
1523:Generated_Source\PSoC4/ble_eventHandler.c **** * 
1524:Generated_Source\PSoC4/ble_eventHandler.c **** * \return
1525:Generated_Source\PSoC4/ble_eventHandler.c **** *  None
1526:Generated_Source\PSoC4/ble_eventHandler.c **** * 
1527:Generated_Source\PSoC4/ble_eventHandler.c **** ******************************************************************************/
1528:Generated_Source\PSoC4/ble_eventHandler.c **** static void CyBle_L2Cap_ConnParamUpdateRspEventHandler(uint16 response)
1529:Generated_Source\PSoC4/ble_eventHandler.c **** {
1530:Generated_Source\PSoC4/ble_eventHandler.c ****     #ifdef CYBLE_CPS_SERVER
1531:Generated_Source\PSoC4/ble_eventHandler.c ****         CyBle_CpssConnParamUpdateRspEventHandler(response);
1532:Generated_Source\PSoC4/ble_eventHandler.c ****     #endif /* CYBLE_CPS_SERVER */
1533:Generated_Source\PSoC4/ble_eventHandler.c ****     
1534:Generated_Source\PSoC4/ble_eventHandler.c ****     /* Unreferenced variable warning workaround */
1535:Generated_Source\PSoC4/ble_eventHandler.c ****     if(response != 0u)
1536:Generated_Source\PSoC4/ble_eventHandler.c ****     {
1537:Generated_Source\PSoC4/ble_eventHandler.c ****     }
1538:Generated_Source\PSoC4/ble_eventHandler.c **** }
1539:Generated_Source\PSoC4/ble_eventHandler.c **** 
1540:Generated_Source\PSoC4/ble_eventHandler.c **** 
1541:Generated_Source\PSoC4/ble_eventHandler.c **** /****************************************************************************** 
1542:Generated_Source\PSoC4/ble_eventHandler.c **** * Function Name: CyBle_GapConnUpdateCompleteEventHandler
1543:Generated_Source\PSoC4/ble_eventHandler.c **** ***************************************************************************//**
1544:Generated_Source\PSoC4/ble_eventHandler.c **** * 
1545:Generated_Source\PSoC4/ble_eventHandler.c **** *  Handles the CYBLE_EVT_GAP_CONNECTION_UPDATE_COMPLETE event from
1546:Generated_Source\PSoC4/ble_eventHandler.c **** *  the BLE stack.
1547:Generated_Source\PSoC4/ble_eventHandler.c **** * 
1548:Generated_Source\PSoC4/ble_eventHandler.c **** *  \param eventParam: The pointer to the data structure specified by the event.
1549:Generated_Source\PSoC4/ble_eventHandler.c **** * 
1550:Generated_Source\PSoC4/ble_eventHandler.c **** * \return
1551:Generated_Source\PSoC4/ble_eventHandler.c **** *  None
1552:Generated_Source\PSoC4/ble_eventHandler.c **** * 
1553:Generated_Source\PSoC4/ble_eventHandler.c **** ******************************************************************************/
1554:Generated_Source\PSoC4/ble_eventHandler.c **** static void CyBle_GapConnUpdateCompleteEventHandler(const CYBLE_GAP_CONN_PARAM_UPDATED_IN_CONTROLLE
1555:Generated_Source\PSoC4/ble_eventHandler.c **** {
1556:Generated_Source\PSoC4/ble_eventHandler.c ****     #ifdef CYBLE_CPS_SERVER
1557:Generated_Source\PSoC4/ble_eventHandler.c ****         CyBle_CpssConnUpdateCompleteEventHandler(eventParam);
1558:Generated_Source\PSoC4/ble_eventHandler.c ****     #endif /* CYBLE_CPS_SERVER */
1559:Generated_Source\PSoC4/ble_eventHandler.c ****     
1560:Generated_Source\PSoC4/ble_eventHandler.c ****     /* Unreferenced variable warning workaround */
1561:Generated_Source\PSoC4/ble_eventHandler.c ****     if(eventParam != 0u)
1562:Generated_Source\PSoC4/ble_eventHandler.c ****     {
1563:Generated_Source\PSoC4/ble_eventHandler.c ****     }
1564:Generated_Source\PSoC4/ble_eventHandler.c **** }
1565:Generated_Source\PSoC4/ble_eventHandler.c **** 
1566:Generated_Source\PSoC4/ble_eventHandler.c **** 
1567:Generated_Source\PSoC4/ble_eventHandler.c **** /****************************************************************************** 
1568:Generated_Source\PSoC4/ble_eventHandler.c **** * Function Name: CyBle_EventHandler
1569:Generated_Source\PSoC4/ble_eventHandler.c **** ***************************************************************************//**
1570:Generated_Source\PSoC4/ble_eventHandler.c **** * 
1571:Generated_Source\PSoC4/ble_eventHandler.c **** *  Handles the events from the BLE stack
1572:Generated_Source\PSoC4/ble_eventHandler.c **** * 
1573:Generated_Source\PSoC4/ble_eventHandler.c **** *  \param eventCode:    the event code
ARM GAS  C:\Users\owono\AppData\Local\Temp\ccFLv7mf.s 			page 32


1574:Generated_Source\PSoC4/ble_eventHandler.c **** *  \param eventParam:  the event parameters
1575:Generated_Source\PSoC4/ble_eventHandler.c **** * 
1576:Generated_Source\PSoC4/ble_eventHandler.c **** * \return
1577:Generated_Source\PSoC4/ble_eventHandler.c **** *  None.
1578:Generated_Source\PSoC4/ble_eventHandler.c **** * 
1579:Generated_Source\PSoC4/ble_eventHandler.c **** ******************************************************************************/
1580:Generated_Source\PSoC4/ble_eventHandler.c **** void CyBle_EventHandler(uint8 eventCode, void *eventParam)
1581:Generated_Source\PSoC4/ble_eventHandler.c **** {
 181              		.loc 1 1581 0
 182              		.cfi_startproc
 183              		@ args = 0, pretend = 0, frame = 8
 184              		@ frame_needed = 0, uses_anonymous_args = 0
 185              	.LVL18:
 186 0000 F0B5     		push	{r4, r5, r6, r7, lr}
 187              		.cfi_def_cfa_offset 20
 188              		.cfi_offset 4, -20
 189              		.cfi_offset 5, -16
 190              		.cfi_offset 6, -12
 191              		.cfi_offset 7, -8
 192              		.cfi_offset 14, -4
 193 0002 83B0     		sub	sp, sp, #12
 194              		.cfi_def_cfa_offset 32
 195 0004 0400     		movs	r4, r0
 196 0006 0D00     		movs	r5, r1
1582:Generated_Source\PSoC4/ble_eventHandler.c ****     cyBle_eventHandlerFlag |= CYBLE_CALLBACK;
 197              		.loc 1 1582 0
 198 0008 994A     		ldr	r2, .L42
 199 000a 1178     		ldrb	r1, [r2]
 200              	.LVL19:
 201 000c 0123     		movs	r3, #1
 202 000e 0B43     		orrs	r3, r1
 203 0010 DBB2     		uxtb	r3, r3
 204 0012 1370     		strb	r3, [r2]
1583:Generated_Source\PSoC4/ble_eventHandler.c **** 
1584:Generated_Source\PSoC4/ble_eventHandler.c ****     /* Common Profile event handling */
1585:Generated_Source\PSoC4/ble_eventHandler.c ****     switch(eventCode)
 205              		.loc 1 1585 0
 206 0014 2728     		cmp	r0, #39
 207 0016 00D1     		bne	.LCB169
 208 0018 C1E0     		b	.L17	@long jump
 209              	.LCB169:
 210 001a 12D8     		bhi	.L18
 211 001c 0628     		cmp	r0, #6
 212 001e 00D1     		bne	.LCB173
 213 0020 85E0     		b	.L19	@long jump
 214              	.LCB173:
 215 0022 04D8     		bhi	.L20
 216 0024 0128     		cmp	r0, #1
 217 0026 21D0     		beq	.L21
 218 0028 0528     		cmp	r0, #5
 219 002a 7CD0     		beq	.L22
 220 002c 0FE1     		b	.L16
 221              	.L20:
 222 002e 2428     		cmp	r0, #36
 223 0030 00D1     		bne	.LCB185
 224 0032 B0E0     		b	.L23	@long jump
 225              	.LCB185:
ARM GAS  C:\Users\owono\AppData\Local\Temp\ccFLv7mf.s 			page 33


 226 0034 2628     		cmp	r0, #38
 227 0036 00D1     		bne	.LCB187
 228 0038 B9E0     		b	.L24	@long jump
 229              	.LCB187:
 230 003a 2128     		cmp	r0, #33
 231 003c 00D0     		beq	.LCB189
 232 003e 06E1     		b	.L16	@long jump
 233              	.LCB189:
 234 0040 89E0     		b	.L25
 235              	.L18:
 236 0042 4228     		cmp	r0, #66
 237 0044 00D1     		bne	.LCB195
 238 0046 EEE0     		b	.L26	@long jump
 239              	.LCB195:
 240 0048 06D8     		bhi	.L27
 241 004a 2828     		cmp	r0, #40
 242 004c 00D1     		bne	.LCB199
 243 004e AAE0     		b	.L28	@long jump
 244              	.LCB199:
 245 0050 4128     		cmp	r0, #65
 246 0052 00D1     		bne	.LCB201
 247 0054 D3E0     		b	.L29	@long jump
 248              	.LCB201:
 249 0056 FAE0     		b	.L16
 250              	.L27:
 251 0058 4C28     		cmp	r0, #76
 252 005a 00D1     		bne	.LCB207
 253 005c EEE0     		b	.L30	@long jump
 254              	.LCB207:
 255 005e FA28     		cmp	r0, #250
 256 0060 00D1     		bne	.LCB209
 257 0062 EFE0     		b	.L31	@long jump
 258              	.LCB209:
 259 0064 4328     		cmp	r0, #67
 260 0066 00D0     		beq	.LCB211
 261 0068 F1E0     		b	.L16	@long jump
 262              	.LCB211:
 263 006a DFE0     		b	.L32
 264              	.L21:
 265              	.LBB3:
1586:Generated_Source\PSoC4/ble_eventHandler.c ****     {
1587:Generated_Source\PSoC4/ble_eventHandler.c ****         /**********************************************************
1588:Generated_Source\PSoC4/ble_eventHandler.c ****         * General events
1589:Generated_Source\PSoC4/ble_eventHandler.c ****         ************************************************************/
1590:Generated_Source\PSoC4/ble_eventHandler.c ****         case CYBLE_EVT_STACK_ON:
1591:Generated_Source\PSoC4/ble_eventHandler.c ****         #if(CYBLE_MODE_PROFILE)
1592:Generated_Source\PSoC4/ble_eventHandler.c ****         {
1593:Generated_Source\PSoC4/ble_eventHandler.c ****             CYBLE_BLESS_PWR_IN_DB_T bleSsPowerLevel;
1594:Generated_Source\PSoC4/ble_eventHandler.c ****             
1595:Generated_Source\PSoC4/ble_eventHandler.c ****             /* Set Tx Power Level for advertising and connection channels */
1596:Generated_Source\PSoC4/ble_eventHandler.c ****             bleSsPowerLevel.blePwrLevelInDbm = CYBLE_TX_POWER_LEVEL_ADV;
 266              		.loc 1 1596 0
 267 006c 01AE     		add	r6, sp, #4
 268 006e 0727     		movs	r7, #7
 269 0070 3770     		strb	r7, [r6]
1597:Generated_Source\PSoC4/ble_eventHandler.c ****             bleSsPowerLevel.bleSsChId = CYBLE_LL_ADV_CH_TYPE;
 270              		.loc 1 1597 0
ARM GAS  C:\Users\owono\AppData\Local\Temp\ccFLv7mf.s 			page 34


 271 0072 0023     		movs	r3, #0
 272 0074 7370     		strb	r3, [r6, #1]
1598:Generated_Source\PSoC4/ble_eventHandler.c ****             (void) CyBle_SetTxPowerLevel (&bleSsPowerLevel);
 273              		.loc 1 1598 0
 274 0076 3000     		movs	r0, r6
 275              	.LVL20:
 276 0078 FFF7FEFF 		bl	CyBle_SetTxPowerLevel
 277              	.LVL21:
1599:Generated_Source\PSoC4/ble_eventHandler.c ****             bleSsPowerLevel.blePwrLevelInDbm = CYBLE_TX_POWER_LEVEL_CONN;
 278              		.loc 1 1599 0
 279 007c 3770     		strb	r7, [r6]
1600:Generated_Source\PSoC4/ble_eventHandler.c ****             bleSsPowerLevel.bleSsChId = CYBLE_LL_CONN_CH_TYPE;
 280              		.loc 1 1600 0
 281 007e 0123     		movs	r3, #1
 282 0080 7370     		strb	r3, [r6, #1]
1601:Generated_Source\PSoC4/ble_eventHandler.c ****             (void) CyBle_SetTxPowerLevel (&bleSsPowerLevel);
 283              		.loc 1 1601 0
 284 0082 3000     		movs	r0, r6
 285 0084 FFF7FEFF 		bl	CyBle_SetTxPowerLevel
 286              	.LVL22:
1602:Generated_Source\PSoC4/ble_eventHandler.c ****             
1603:Generated_Source\PSoC4/ble_eventHandler.c ****             #if (CYBLE_GATT_ROLE_SERVER)
1604:Generated_Source\PSoC4/ble_eventHandler.c ****                 /* As per Privacy Errata a call to CyBle_EnableDefaultDevicePrivacy() is
1605:Generated_Source\PSoC4/ble_eventHandler.c ****                   required to set a device to use device privacy instead of network privacy
1606:Generated_Source\PSoC4/ble_eventHandler.c ****                   that is enabled by default starting from BLE Stack 3.3.
1607:Generated_Source\PSoC4/ble_eventHandler.c ****                 */
1608:Generated_Source\PSoC4/ble_eventHandler.c ****                 if(cyBle_gaps.rpaOnlyCharHandle != CYBLE_GATT_INVALID_ATTR_HANDLE_VALUE)
1609:Generated_Source\PSoC4/ble_eventHandler.c ****                 {
1610:Generated_Source\PSoC4/ble_eventHandler.c ****                     CyBle_EnableDefaultDevicePrivacy();
 287              		.loc 1 1610 0
 288 0088 FFF7FEFF 		bl	CyBle_EnableDefaultDevicePrivacy
 289              	.LVL23:
 290              	.LBE3:
1611:Generated_Source\PSoC4/ble_eventHandler.c ****                 }
1612:Generated_Source\PSoC4/ble_eventHandler.c ****             #endif /* (CYBLE_GATT_ROLE_SERVER) */
1613:Generated_Source\PSoC4/ble_eventHandler.c ****             
1614:Generated_Source\PSoC4/ble_eventHandler.c ****             #if (CYBLE_STRICT_PAIRING_ENABLED)
1615:Generated_Source\PSoC4/ble_eventHandler.c ****                 (void) CyBle_GapSetSecurityRequirements(CYBLE_STRICT_PAIRING_REQ_VALUE, CYBLE_SECUR
1616:Generated_Source\PSoC4/ble_eventHandler.c ****             #endif /* (CYBLE_STRICT_PAIRING_ENABLED) */
1617:Generated_Source\PSoC4/ble_eventHandler.c ****             
1618:Generated_Source\PSoC4/ble_eventHandler.c ****         }
1619:Generated_Source\PSoC4/ble_eventHandler.c ****         #endif /* CYBLE_MODE_PROFILE */
1620:Generated_Source\PSoC4/ble_eventHandler.c ****         #if (CYBLE_GATT_ROLE_SERVER || CYBLE_GATT_ROLE_CLIENT)
1621:Generated_Source\PSoC4/ble_eventHandler.c ****             /* Set device Address  */
1622:Generated_Source\PSoC4/ble_eventHandler.c ****             if(CyBle_IsDeviceAddressValid(cyBle_sflashDeviceAddress) != 0u)
 291              		.loc 1 1622 0
 292 008c 794B     		ldr	r3, .L42+4
 293 008e 1E68     		ldr	r6, [r3]
 294 0090 3000     		movs	r0, r6
 295 0092 FFF7FEFF 		bl	CyBle_IsDeviceAddressValid
 296              	.LVL24:
 297 0096 0028     		cmp	r0, #0
 298 0098 0CD0     		beq	.L33
1623:Generated_Source\PSoC4/ble_eventHandler.c ****             {
1624:Generated_Source\PSoC4/ble_eventHandler.c ****                 (void) CyBle_SetDeviceAddress(cyBle_sflashDeviceAddress);
 299              		.loc 1 1624 0
 300 009a 3000     		movs	r0, r6
ARM GAS  C:\Users\owono\AppData\Local\Temp\ccFLv7mf.s 			page 35


 301 009c FFF7FEFF 		bl	CyBle_SetDeviceAddress
 302              	.LVL25:
1625:Generated_Source\PSoC4/ble_eventHandler.c ****                 #if(CYBLE_GAP_ROLE_PERIPHERAL || CYBLE_GAP_ROLE_BROADCASTER)
1626:Generated_Source\PSoC4/ble_eventHandler.c ****                     CyBle_ChangeAdDeviceAddress(cyBle_sflashDeviceAddress, 0u);
 303              		.loc 1 1626 0
 304 00a0 744E     		ldr	r6, .L42+4
 305 00a2 0021     		movs	r1, #0
 306 00a4 3068     		ldr	r0, [r6]
 307 00a6 FFF7FEFF 		bl	CyBle_ChangeAdDeviceAddress
 308              	.LVL26:
1627:Generated_Source\PSoC4/ble_eventHandler.c ****                     CyBle_ChangeAdDeviceAddress(cyBle_sflashDeviceAddress, 1u);
 309              		.loc 1 1627 0
 310 00aa 3068     		ldr	r0, [r6]
 311 00ac 0121     		movs	r1, #1
 312 00ae FFF7FEFF 		bl	CyBle_ChangeAdDeviceAddress
 313              	.LVL27:
 314 00b2 2AE0     		b	.L34
 315              	.L33:
 316              	.LBB4:
1628:Generated_Source\PSoC4/ble_eventHandler.c ****                 #endif /* CYBLE_GAP_ROLE_PERIPHERAL || CYBLE_GAP_ROLE_BROADCASTER */    
1629:Generated_Source\PSoC4/ble_eventHandler.c ****             }
1630:Generated_Source\PSoC4/ble_eventHandler.c ****             else
1631:Generated_Source\PSoC4/ble_eventHandler.c ****             {
1632:Generated_Source\PSoC4/ble_eventHandler.c ****             #if (SILICON_GENERATED_DEVICE_ADDRESS != 0u)
1633:Generated_Source\PSoC4/ble_eventHandler.c ****             {
1634:Generated_Source\PSoC4/ble_eventHandler.c ****                 uint32 bdAddrLoc;
1635:Generated_Source\PSoC4/ble_eventHandler.c ****                 bdAddrLoc = (CYBLE_SFLASH_DIE_X_REG & CYBLE_SFLASH_DIE_X_MASK) |
 317              		.loc 1 1635 0
 318 00b4 704B     		ldr	r3, .L42+8
 319 00b6 1F78     		ldrb	r7, [r3]
1636:Generated_Source\PSoC4/ble_eventHandler.c ****                     ((uint32)(((uint32)CYBLE_SFLASH_DIE_Y_REG) & ((uint32)CYBLE_SFLASH_DIE_Y_MASK))
 320              		.loc 1 1636 0
 321 00b8 704B     		ldr	r3, .L42+12
 322 00ba 1878     		ldrb	r0, [r3]
 323 00bc 8001     		lsls	r0, r0, #6
 324 00be FC26     		movs	r6, #252
 325 00c0 3601     		lsls	r6, r6, #4
 326 00c2 0200     		movs	r2, r0
 327 00c4 3240     		ands	r2, r6
1635:Generated_Source\PSoC4/ble_eventHandler.c ****                     ((uint32)(((uint32)CYBLE_SFLASH_DIE_Y_REG) & ((uint32)CYBLE_SFLASH_DIE_Y_MASK))
 328              		.loc 1 1635 0
 329 00c6 3F21     		movs	r1, #63
 330 00c8 3940     		ands	r1, r7
 331 00ca 1143     		orrs	r1, r2
1637:Generated_Source\PSoC4/ble_eventHandler.c ****                         CYBLE_SFLASH_DIE_X_BITS) |
1638:Generated_Source\PSoC4/ble_eventHandler.c ****                     ((uint32)(((uint32)CYBLE_SFLASH_DIE_WAFER_REG) & ((uint32)CYBLE_SFLASH_DIE_WAFE
 332              		.loc 1 1638 0
 333 00cc 6C4B     		ldr	r3, .L42+16
 334 00ce 1B78     		ldrb	r3, [r3]
 335 00d0 1B03     		lsls	r3, r3, #12
 336 00d2 F822     		movs	r2, #248
 337 00d4 5202     		lsls	r2, r2, #9
 338 00d6 1340     		ands	r3, r2
1637:Generated_Source\PSoC4/ble_eventHandler.c ****                         CYBLE_SFLASH_DIE_X_BITS) |
 339              		.loc 1 1637 0
 340 00d8 1943     		orrs	r1, r3
1639:Generated_Source\PSoC4/ble_eventHandler.c ****                         CYBLE_SFLASH_DIE_XY_BITS) |
ARM GAS  C:\Users\owono\AppData\Local\Temp\ccFLv7mf.s 			page 36


1640:Generated_Source\PSoC4/ble_eventHandler.c ****                     ((uint32)(((uint32)CYBLE_SFLASH_DIE_LOT_REG) & ((uint32)CYBLE_SFLASH_DIE_LOT_MA
 341              		.loc 1 1640 0
 342 00da 6A4B     		ldr	r3, .L42+20
 343 00dc 1B78     		ldrb	r3, [r3]
 344 00de 5B04     		lsls	r3, r3, #17
 345 00e0 FE22     		movs	r2, #254
 346 00e2 1204     		lsls	r2, r2, #16
 347 00e4 1340     		ands	r3, r2
1635:Generated_Source\PSoC4/ble_eventHandler.c ****                     ((uint32)(((uint32)CYBLE_SFLASH_DIE_Y_REG) & ((uint32)CYBLE_SFLASH_DIE_Y_MASK))
 348              		.loc 1 1635 0
 349 00e6 0B43     		orrs	r3, r1
 350              	.LVL28:
1641:Generated_Source\PSoC4/ble_eventHandler.c ****                         CYBLE_SFLASH_DIE_XYWAFER_BITS);
1642:Generated_Source\PSoC4/ble_eventHandler.c ****                             
1643:Generated_Source\PSoC4/ble_eventHandler.c ****                 cyBle_deviceAddress.bdAddr[0] = (uint8)bdAddrLoc;
 351              		.loc 1 1643 0
 352 00e8 674E     		ldr	r6, .L42+24
 353 00ea 3370     		strb	r3, [r6]
1644:Generated_Source\PSoC4/ble_eventHandler.c ****                 cyBle_deviceAddress.bdAddr[1] = (uint8)(bdAddrLoc >> 8u);
 354              		.loc 1 1644 0
 355 00ec 1A0A     		lsrs	r2, r3, #8
 356 00ee 7270     		strb	r2, [r6, #1]
1645:Generated_Source\PSoC4/ble_eventHandler.c ****                 cyBle_deviceAddress.bdAddr[2] = (uint8)(bdAddrLoc >> 16u);
 357              		.loc 1 1645 0
 358 00f0 1B0C     		lsrs	r3, r3, #16
 359              	.LVL29:
 360 00f2 B370     		strb	r3, [r6, #2]
 361              	.LBE4:
1646:Generated_Source\PSoC4/ble_eventHandler.c ****             }
1647:Generated_Source\PSoC4/ble_eventHandler.c ****             #endif /* SILICON_GENERATED_DEVICE_ADDRESS != 0u */
1648:Generated_Source\PSoC4/ble_eventHandler.c ****                 (void) CyBle_SetDeviceAddress(&cyBle_deviceAddress);
 362              		.loc 1 1648 0
 363 00f4 3000     		movs	r0, r6
 364 00f6 FFF7FEFF 		bl	CyBle_SetDeviceAddress
 365              	.LVL30:
1649:Generated_Source\PSoC4/ble_eventHandler.c ****                 #if(CYBLE_GAP_ROLE_PERIPHERAL || CYBLE_GAP_ROLE_BROADCASTER)
1650:Generated_Source\PSoC4/ble_eventHandler.c ****                     CyBle_ChangeAdDeviceAddress(&cyBle_deviceAddress, 0u);
 366              		.loc 1 1650 0
 367 00fa 0021     		movs	r1, #0
 368 00fc 3000     		movs	r0, r6
 369 00fe FFF7FEFF 		bl	CyBle_ChangeAdDeviceAddress
 370              	.LVL31:
1651:Generated_Source\PSoC4/ble_eventHandler.c ****                     CyBle_ChangeAdDeviceAddress(&cyBle_deviceAddress, 1u);
 371              		.loc 1 1651 0
 372 0102 0121     		movs	r1, #1
 373 0104 3000     		movs	r0, r6
 374 0106 FFF7FEFF 		bl	CyBle_ChangeAdDeviceAddress
 375              	.LVL32:
 376              	.L34:
1652:Generated_Source\PSoC4/ble_eventHandler.c ****                 #endif /* CYBLE_GAP_ROLE_PERIPHERAL || CYBLE_GAP_ROLE_BROADCASTER */    
1653:Generated_Source\PSoC4/ble_eventHandler.c ****             }
1654:Generated_Source\PSoC4/ble_eventHandler.c ****             /* Set device IO Capability  */
1655:Generated_Source\PSoC4/ble_eventHandler.c ****             (void) CyBle_GapSetIoCap(CYBLE_IO_CAPABILITY);    
 377              		.loc 1 1655 0
 378 010a 0020     		movs	r0, #0
 379 010c FFF7FEFF 		bl	CyBle_GapSetIoCap
 380              	.LVL33:
ARM GAS  C:\Users\owono\AppData\Local\Temp\ccFLv7mf.s 			page 37


 381              	.LBB5:
1656:Generated_Source\PSoC4/ble_eventHandler.c ****             {
1657:Generated_Source\PSoC4/ble_eventHandler.c ****                 /* Enable all 4.1 events and configured 4.2 events */
1658:Generated_Source\PSoC4/ble_eventHandler.c ****                 uint8 leMask[CYBLE_LE_MASK_LENGTH] = {LO8(CYBLE_LE_MASK), HI8(CYBLE_LE_MASK)};
 382              		.loc 1 1658 0
 383 0110 01A8     		add	r0, sp, #4
 384 0112 3F23     		movs	r3, #63
 385 0114 0370     		strb	r3, [r0]
 386 0116 0023     		movs	r3, #0
 387 0118 4370     		strb	r3, [r0, #1]
1659:Generated_Source\PSoC4/ble_eventHandler.c ****                 (void) CyBle_GapSetLeEventMask(leMask);
 388              		.loc 1 1659 0
 389 011a FFF7FEFF 		bl	CyBle_GapSetLeEventMask
 390              	.LVL34:
 391              	.LBE5:
1660:Generated_Source\PSoC4/ble_eventHandler.c ****             }
1661:Generated_Source\PSoC4/ble_eventHandler.c ****         #if(CYBLE_DLE_FEATURE_ENABLED)
1662:Generated_Source\PSoC4/ble_eventHandler.c ****         {
1663:Generated_Source\PSoC4/ble_eventHandler.c ****             /* Set maximum suggested TX payload size */
1664:Generated_Source\PSoC4/ble_eventHandler.c ****             uint16 payloadTime = CYBLE_LL_MAX_TX_TIME;
1665:Generated_Source\PSoC4/ble_eventHandler.c ****             (void) CyBle_GapConvertOctetToTime(CYBLE_GAP_PHY_1MBPS, CYBLE_LL_MAX_TX_PAYLOAD_SIZE, &
1666:Generated_Source\PSoC4/ble_eventHandler.c ****             (void) CyBle_GapSetSuggestedDataLength(CYBLE_LL_MAX_TX_PAYLOAD_SIZE, payloadTime); 
1667:Generated_Source\PSoC4/ble_eventHandler.c ****         }
1668:Generated_Source\PSoC4/ble_eventHandler.c ****         #endif /* CYBLE_DLE_FEATURE != 0u */
1669:Generated_Source\PSoC4/ble_eventHandler.c ****         
1670:Generated_Source\PSoC4/ble_eventHandler.c ****         #endif /* CYBLE_GATT_ROLE_SERVER || CYBLE_GATT_ROLE_CLIENT */
1671:Generated_Source\PSoC4/ble_eventHandler.c ****             CyBle_SetState(CYBLE_STATE_DISCONNECTED);
 392              		.loc 1 1671 0
 393 011e 0422     		movs	r2, #4
 394 0120 5A4B     		ldr	r3, .L42+28
 395 0122 1A70     		strb	r2, [r3]
1672:Generated_Source\PSoC4/ble_eventHandler.c ****             break;
 396              		.loc 1 1672 0
 397 0124 93E0     		b	.L16
 398              	.LVL35:
 399              	.L22:
1673:Generated_Source\PSoC4/ble_eventHandler.c ****         case CYBLE_EVT_TIMEOUT:
1674:Generated_Source\PSoC4/ble_eventHandler.c ****             CyBle_TimeOutEventHandler((CYBLE_TO_REASON_CODE_T *)eventParam);
1675:Generated_Source\PSoC4/ble_eventHandler.c ****             break;
1676:Generated_Source\PSoC4/ble_eventHandler.c ****     	case CYBLE_EVT_STACK_BUSY_STATUS:
1677:Generated_Source\PSoC4/ble_eventHandler.c ****             cyBle_busyStatus = *(uint8 *)eventParam;
 400              		.loc 1 1677 0
 401 0126 2A78     		ldrb	r2, [r5]
 402 0128 594B     		ldr	r3, .L42+32
 403 012a 1A70     		strb	r2, [r3]
1678:Generated_Source\PSoC4/ble_eventHandler.c ****             break;
 404              		.loc 1 1678 0
 405 012c 8FE0     		b	.L16
 406              	.L19:
 407              	.LVL36:
 408              	.LBB6:
1679:Generated_Source\PSoC4/ble_eventHandler.c ****     	case CYBLE_EVT_MEMORY_REQUEST:
1680:Generated_Source\PSoC4/ble_eventHandler.c ****         #if(CYBLE_MODE_PROFILE)
1681:Generated_Source\PSoC4/ble_eventHandler.c ****         {
1682:Generated_Source\PSoC4/ble_eventHandler.c ****             CYBLE_MEMORY_REQUEST_T *memReq = (CYBLE_MEMORY_REQUEST_T *)eventParam;
1683:Generated_Source\PSoC4/ble_eventHandler.c ****             if(memReq->request == CYBLE_PREPARED_WRITE_REQUEST)
 409              		.loc 1 1683 0
ARM GAS  C:\Users\owono\AppData\Local\Temp\ccFLv7mf.s 			page 38


 410 012e 2B78     		ldrb	r3, [r5]
 411 0130 002B     		cmp	r3, #0
 412 0132 00D0     		beq	.LCB345
 413 0134 8BE0     		b	.L16	@long jump
 414              	.LCB345:
1684:Generated_Source\PSoC4/ble_eventHandler.c ****             {  
1685:Generated_Source\PSoC4/ble_eventHandler.c ****             #if(CYBLE_GATT_ENABLE_EXTERNAL_PREP_WRITE_BUFF == 0u)
1686:Generated_Source\PSoC4/ble_eventHandler.c ****                 /* Stack requests to provide memory to process remote request */
1687:Generated_Source\PSoC4/ble_eventHandler.c ****                 if(memReq->allocFree == CYBLE_ALLOC_MEMORY)
 415              		.loc 1 1687 0
 416 0136 6B78     		ldrb	r3, [r5, #1]
 417 0138 002B     		cmp	r3, #0
 418 013a 06D1     		bne	.L35
 419              	.LBB7:
1688:Generated_Source\PSoC4/ble_eventHandler.c ****                 {
1689:Generated_Source\PSoC4/ble_eventHandler.c ****                     static CYBLE_PREPARE_WRITE_REQUEST_MEMORY_T gPrepWriteReqMem;
1690:Generated_Source\PSoC4/ble_eventHandler.c ****                     
1691:Generated_Source\PSoC4/ble_eventHandler.c ****                     /* Configure and return statically allocated buffer at the end of cyBle_stackMe
1692:Generated_Source\PSoC4/ble_eventHandler.c ****                     gPrepWriteReqMem.prepareWriteQueueSize = CYBLE_GATT_MAX_PREPARE_BUFF_COUNT;
 420              		.loc 1 1692 0
 421 013c 554B     		ldr	r3, .L42+36
 422 013e 0022     		movs	r2, #0
 423 0140 DA80     		strh	r2, [r3, #6]
1693:Generated_Source\PSoC4/ble_eventHandler.c ****                     gPrepWriteReqMem.totalAttrValueLength = CYBLE_GATT_PREPARE_LENGTH_ALIGN;
 424              		.loc 1 1693 0
 425 0142 9A80     		strh	r2, [r3, #4]
1694:Generated_Source\PSoC4/ble_eventHandler.c ****                     gPrepWriteReqMem.queueBuffer = &cyBle_stackMemoryRam[CYBLE_STACK_RAM_SIZE - 
 426              		.loc 1 1694 0
 427 0144 544A     		ldr	r2, .L42+40
 428 0146 1A60     		str	r2, [r3]
1695:Generated_Source\PSoC4/ble_eventHandler.c ****                                                                          CYBLE_GATT_PREPARE_WRITE_B
1696:Generated_Source\PSoC4/ble_eventHandler.c ****                     memReq->configMemory = &gPrepWriteReqMem;  
 429              		.loc 1 1696 0
 430 0148 6B60     		str	r3, [r5, #4]
 431              	.L35:
 432              	.LBE7:
1697:Generated_Source\PSoC4/ble_eventHandler.c ****                 }                
1698:Generated_Source\PSoC4/ble_eventHandler.c ****                 /* Clear CYBLE_CALLBACK flag not to provide handled event to application */
1699:Generated_Source\PSoC4/ble_eventHandler.c ****                 cyBle_eventHandlerFlag &= (uint8)~CYBLE_CALLBACK;
 433              		.loc 1 1699 0
 434 014a 494A     		ldr	r2, .L42
 435 014c 1378     		ldrb	r3, [r2]
 436 014e 0121     		movs	r1, #1
 437 0150 8B43     		bics	r3, r1
 438 0152 1370     		strb	r3, [r2]
 439 0154 7BE0     		b	.L16
 440              	.LVL37:
 441              	.L25:
 442              	.LBE6:
1700:Generated_Source\PSoC4/ble_eventHandler.c ****             #endif  /* CYBLE_GATT_ENABLE_EXTERNAL_PREP_WRITE_BUFF == 0u */
1701:Generated_Source\PSoC4/ble_eventHandler.c ****             }
1702:Generated_Source\PSoC4/ble_eventHandler.c ****         }
1703:Generated_Source\PSoC4/ble_eventHandler.c ****         #endif /* CYBLE_MODE_PROFILE */
1704:Generated_Source\PSoC4/ble_eventHandler.c ****             break;
1705:Generated_Source\PSoC4/ble_eventHandler.c ****         /**********************************************************
1706:Generated_Source\PSoC4/ble_eventHandler.c ****         * GAP events
1707:Generated_Source\PSoC4/ble_eventHandler.c ****         ************************************************************/
ARM GAS  C:\Users\owono\AppData\Local\Temp\ccFLv7mf.s 			page 39


1708:Generated_Source\PSoC4/ble_eventHandler.c ****         case CYBLE_EVT_GAP_AUTH_REQ:
1709:Generated_Source\PSoC4/ble_eventHandler.c ****         #if(CYBLE_MODE_PROFILE)
1710:Generated_Source\PSoC4/ble_eventHandler.c ****             if((cyBle_eventHandlerFlag & CYBLE_DISABLE_AUTOMATIC_AUTH) == 0u)
 443              		.loc 1 1710 0
 444 0156 464B     		ldr	r3, .L42
 445 0158 1B78     		ldrb	r3, [r3]
 446 015a 9B06     		lsls	r3, r3, #26
 447 015c 77D4     		bmi	.L16
1711:Generated_Source\PSoC4/ble_eventHandler.c ****             {
1712:Generated_Source\PSoC4/ble_eventHandler.c ****                 /* If the responding device does not support pairing then the responding 
1713:Generated_Source\PSoC4/ble_eventHandler.c ****                    device shall respond using the Pairing Failed message with the error 
1714:Generated_Source\PSoC4/ble_eventHandler.c ****                    code "Pairing Not Supported" otherwise it responds with a Pairing 
1715:Generated_Source\PSoC4/ble_eventHandler.c ****                    Response message.
1716:Generated_Source\PSoC4/ble_eventHandler.c ****                 */
1717:Generated_Source\PSoC4/ble_eventHandler.c ****                 if(cyBle_authInfo.security == (CYBLE_GAP_SEC_MODE_1 | CYBLE_GAP_SEC_LEVEL_1))
 448              		.loc 1 1717 0
 449 015e 4F4B     		ldr	r3, .L42+44
 450 0160 1B78     		ldrb	r3, [r3]
 451 0162 102B     		cmp	r3, #16
 452 0164 02D1     		bne	.L36
1718:Generated_Source\PSoC4/ble_eventHandler.c ****                 {
1719:Generated_Source\PSoC4/ble_eventHandler.c ****                     cyBle_authInfo.authErr = CYBLE_GAP_AUTH_ERROR_PAIRING_NOT_SUPPORTED;
 453              		.loc 1 1719 0
 454 0166 0522     		movs	r2, #5
 455 0168 4C4B     		ldr	r3, .L42+44
 456 016a DA70     		strb	r2, [r3, #3]
 457              	.L36:
 458              	.LBB8:
1720:Generated_Source\PSoC4/ble_eventHandler.c ****                 }    
1721:Generated_Source\PSoC4/ble_eventHandler.c ****             #if(CYBLE_GAP_ROLE_PERIPHERAL)
1722:Generated_Source\PSoC4/ble_eventHandler.c ****                 {
1723:Generated_Source\PSoC4/ble_eventHandler.c ****                     CYBLE_API_RESULT_T apiResult;
1724:Generated_Source\PSoC4/ble_eventHandler.c ****                     
1725:Generated_Source\PSoC4/ble_eventHandler.c ****                     apiResult = CyBle_GappAuthReqReply(cyBle_connHandle.bdHandle, &cyBle_authInfo);
 459              		.loc 1 1725 0
 460 016c 4C4B     		ldr	r3, .L42+48
 461 016e 1878     		ldrb	r0, [r3]
 462              	.LVL38:
 463 0170 4A49     		ldr	r1, .L42+44
 464 0172 FFF7FEFF 		bl	CyBle_GappAuthReqReply
 465              	.LVL39:
 466 0176 01AB     		add	r3, sp, #4
 467 0178 1880     		strh	r0, [r3]
1726:Generated_Source\PSoC4/ble_eventHandler.c ****                     /* Setting callback flag again as CyBle_GappAuthReqReply() will generate
1727:Generated_Source\PSoC4/ble_eventHandler.c ****                     * CYBLE_EVT_GAP_SMP_NEGOTIATED_AUTH_INFO event which will clear the callback
1728:Generated_Source\PSoC4/ble_eventHandler.c ****                     * flag.
1729:Generated_Source\PSoC4/ble_eventHandler.c ****                     */
1730:Generated_Source\PSoC4/ble_eventHandler.c ****                     if (apiResult != CYBLE_ERROR_OK)
 468              		.loc 1 1730 0
 469 017a 0028     		cmp	r0, #0
 470 017c 04D0     		beq	.L37
1731:Generated_Source\PSoC4/ble_eventHandler.c ****                     {   
1732:Generated_Source\PSoC4/ble_eventHandler.c ****                         CyBle_ApplCallback(CYBLE_EVT_GAP_AUTH_REQ_REPLY_ERR , &apiResult);
 471              		.loc 1 1732 0
 472 017e 494B     		ldr	r3, .L42+52
 473 0180 1B68     		ldr	r3, [r3]
 474 0182 01A9     		add	r1, sp, #4
ARM GAS  C:\Users\owono\AppData\Local\Temp\ccFLv7mf.s 			page 40


 475 0184 3620     		movs	r0, #54
 476 0186 9847     		blx	r3
 477              	.LVL40:
 478              	.L37:
1733:Generated_Source\PSoC4/ble_eventHandler.c ****                     }
1734:Generated_Source\PSoC4/ble_eventHandler.c ****                     cyBle_eventHandlerFlag |= CYBLE_CALLBACK;
 479              		.loc 1 1734 0
 480 0188 394A     		ldr	r2, .L42
 481 018a 1178     		ldrb	r1, [r2]
 482 018c 0123     		movs	r3, #1
 483 018e 0B43     		orrs	r3, r1
 484 0190 DBB2     		uxtb	r3, r3
 485 0192 1370     		strb	r3, [r2]
 486 0194 5BE0     		b	.L16
 487              	.LVL41:
 488              	.L23:
 489              	.LBE8:
1735:Generated_Source\PSoC4/ble_eventHandler.c ****                 }
1736:Generated_Source\PSoC4/ble_eventHandler.c ****             #endif /* CYBLE_GAP_ROLE_PERIPHERAL */
1737:Generated_Source\PSoC4/ble_eventHandler.c ****             #if (CYBLE_GAP_ROLE_CENTRAL)
1738:Generated_Source\PSoC4/ble_eventHandler.c ****                 (void)CyBle_GapAuthReq(cyBle_connHandle.bdHandle, &cyBle_authInfo);
1739:Generated_Source\PSoC4/ble_eventHandler.c ****             #endif /* CYBLE_GAP_ROLE_CENTRAL */
1740:Generated_Source\PSoC4/ble_eventHandler.c ****             }
1741:Generated_Source\PSoC4/ble_eventHandler.c ****         #endif /* CYBLE_MODE_PROFILE */
1742:Generated_Source\PSoC4/ble_eventHandler.c ****             break;
1743:Generated_Source\PSoC4/ble_eventHandler.c ****         
1744:Generated_Source\PSoC4/ble_eventHandler.c ****         case CYBLE_EVT_GAP_AUTH_COMPLETE:
1745:Generated_Source\PSoC4/ble_eventHandler.c ****         #if((CYBLE_GAP_ROLE_PERIPHERAL || CYBLE_GAP_ROLE_CENTRAL) && (CYBLE_BONDING_REQUIREMENT == 
1746:Generated_Source\PSoC4/ble_eventHandler.c ****             cyBle_peerBonding = ((CYBLE_GAP_AUTH_INFO_T *)eventParam)->bonding;
 490              		.loc 1 1746 0
 491 0196 6A78     		ldrb	r2, [r5, #1]
 492 0198 434B     		ldr	r3, .L42+56
 493 019a 1A70     		strb	r2, [r3]
1747:Generated_Source\PSoC4/ble_eventHandler.c ****         #endif  /* CYBLE_BONDING_REQUIREMENT == CYBLE_BONDING_YES */
1748:Generated_Source\PSoC4/ble_eventHandler.c ****             break;
 494              		.loc 1 1748 0
 495 019c 57E0     		b	.L16
 496              	.L17:
1749:Generated_Source\PSoC4/ble_eventHandler.c ****         
1750:Generated_Source\PSoC4/ble_eventHandler.c ****         case CYBLE_EVT_GAP_CONNECTION_UPDATE_COMPLETE:
1751:Generated_Source\PSoC4/ble_eventHandler.c ****             CyBle_GapConnUpdateCompleteEventHandler((const CYBLE_GAP_CONN_PARAM_UPDATED_IN_CONTROLL
1752:Generated_Source\PSoC4/ble_eventHandler.c ****             break;
1753:Generated_Source\PSoC4/ble_eventHandler.c ****             
1754:Generated_Source\PSoC4/ble_eventHandler.c ****     #if(CYBLE_LL_PRIVACY_FEATURE != 0u)        
1755:Generated_Source\PSoC4/ble_eventHandler.c ****         case CYBLE_EVT_GAP_ENHANCE_CONN_COMPLETE:
1756:Generated_Source\PSoC4/ble_eventHandler.c ****         {
1757:Generated_Source\PSoC4/ble_eventHandler.c ****             CYBLE_GAP_CONN_PARAM_UPDATED_IN_CONTROLLER_T  connCParam;
1758:Generated_Source\PSoC4/ble_eventHandler.c ****             CYBLE_GAP_ENHANCE_CONN_COMPLETE_T *connEnhanceParam;
1759:Generated_Source\PSoC4/ble_eventHandler.c ****             
1760:Generated_Source\PSoC4/ble_eventHandler.c ****             connEnhanceParam = (CYBLE_GAP_ENHANCE_CONN_COMPLETE_T *)eventParam;
1761:Generated_Source\PSoC4/ble_eventHandler.c ****             connCParam.status = connEnhanceParam->status;
1762:Generated_Source\PSoC4/ble_eventHandler.c ****             connCParam.connIntv = connEnhanceParam->connIntv;
1763:Generated_Source\PSoC4/ble_eventHandler.c ****             connCParam.connLatency = connEnhanceParam->connLatency;
1764:Generated_Source\PSoC4/ble_eventHandler.c ****             connCParam.supervisionTO = connEnhanceParam->supervisionTo;
1765:Generated_Source\PSoC4/ble_eventHandler.c ****             CyBle_GapConnUpdateCompleteEventHandler((const CYBLE_GAP_CONN_PARAM_UPDATED_IN_CONTROLL
1766:Generated_Source\PSoC4/ble_eventHandler.c ****             
1767:Generated_Source\PSoC4/ble_eventHandler.c ****             #if(CYBLE_GAP_ROLE_CENTRAL)
ARM GAS  C:\Users\owono\AppData\Local\Temp\ccFLv7mf.s 			page 41


1768:Generated_Source\PSoC4/ble_eventHandler.c ****                 if(cyBle_connectingTimeout != 0u)
1769:Generated_Source\PSoC4/ble_eventHandler.c ****                 {
1770:Generated_Source\PSoC4/ble_eventHandler.c ****                    (void)CyBle_StopTimer();
1771:Generated_Source\PSoC4/ble_eventHandler.c ****                 }
1772:Generated_Source\PSoC4/ble_eventHandler.c ****             #endif /* CYBLE_GAP_ROLE_CENTRAL */
1773:Generated_Source\PSoC4/ble_eventHandler.c ****             CyBle_SetState(CYBLE_STATE_CONNECTED);
1774:Generated_Source\PSoC4/ble_eventHandler.c ****         }
1775:Generated_Source\PSoC4/ble_eventHandler.c ****             break;
1776:Generated_Source\PSoC4/ble_eventHandler.c ****     #endif /* CYBLE_LL_PRIVACY_FEATURE != 0u */      
1777:Generated_Source\PSoC4/ble_eventHandler.c ****             
1778:Generated_Source\PSoC4/ble_eventHandler.c ****         case CYBLE_EVT_GAP_DEVICE_CONNECTED:
1779:Generated_Source\PSoC4/ble_eventHandler.c ****             CyBle_GapConnUpdateCompleteEventHandler((const CYBLE_GAP_CONN_PARAM_UPDATED_IN_CONTROLL
1780:Generated_Source\PSoC4/ble_eventHandler.c ****             #if(CYBLE_GAP_ROLE_CENTRAL)
1781:Generated_Source\PSoC4/ble_eventHandler.c ****                 if(cyBle_connectingTimeout != 0u)
1782:Generated_Source\PSoC4/ble_eventHandler.c ****                 {
1783:Generated_Source\PSoC4/ble_eventHandler.c ****                    (void)CyBle_StopTimer();
1784:Generated_Source\PSoC4/ble_eventHandler.c ****                 }
1785:Generated_Source\PSoC4/ble_eventHandler.c ****             #endif /* CYBLE_GAP_ROLE_CENTRAL */
1786:Generated_Source\PSoC4/ble_eventHandler.c ****             CyBle_SetState(CYBLE_STATE_CONNECTED);
 497              		.loc 1 1786 0
 498 019e 0222     		movs	r2, #2
 499 01a0 3A4B     		ldr	r3, .L42+28
 500 01a2 1A70     		strb	r2, [r3]
1787:Generated_Source\PSoC4/ble_eventHandler.c ****             break;
 501              		.loc 1 1787 0
 502 01a4 53E0     		b	.L16
 503              	.L28:
1788:Generated_Source\PSoC4/ble_eventHandler.c **** 
1789:Generated_Source\PSoC4/ble_eventHandler.c ****         case CYBLE_EVT_GAP_DEVICE_DISCONNECTED:
1790:Generated_Source\PSoC4/ble_eventHandler.c ****             CyBle_SetState(CYBLE_STATE_DISCONNECTED);
 504              		.loc 1 1790 0
 505 01a6 0422     		movs	r2, #4
 506 01a8 384B     		ldr	r3, .L42+28
 507 01aa 1A70     		strb	r2, [r3]
1791:Generated_Source\PSoC4/ble_eventHandler.c ****             break;
 508              		.loc 1 1791 0
 509 01ac 4FE0     		b	.L16
 510              	.L24:
1792:Generated_Source\PSoC4/ble_eventHandler.c ****         #if(CYBLE_GAP_ROLE_PERIPHERAL || CYBLE_GAP_ROLE_BROADCASTER)
1793:Generated_Source\PSoC4/ble_eventHandler.c ****             
1794:Generated_Source\PSoC4/ble_eventHandler.c ****         case CYBLE_EVT_GAPP_ADVERTISEMENT_START_STOP:
1795:Generated_Source\PSoC4/ble_eventHandler.c ****             #ifdef CYBLE_CPS_SERVER
1796:Generated_Source\PSoC4/ble_eventHandler.c ****                 #if(CYBLE_GAP_ROLE_BROADCASTER)
1797:Generated_Source\PSoC4/ble_eventHandler.c ****                     CyBle_CpssAdvertisementStartStopEventHandler();
1798:Generated_Source\PSoC4/ble_eventHandler.c ****                 #endif /* CYBLE_GAP_ROLE_BROADCASTER */
1799:Generated_Source\PSoC4/ble_eventHandler.c ****             #endif /* CYBLE_CPS_SERVER */
1800:Generated_Source\PSoC4/ble_eventHandler.c ****             
1801:Generated_Source\PSoC4/ble_eventHandler.c ****             if((CYBLE_STATE_CONNECTED != CyBle_GetState()) && ((cyBle_eventHandlerFlag & CYBLE_CALL
 511              		.loc 1 1801 0
 512 01ae 374B     		ldr	r3, .L42+28
 513 01b0 1B78     		ldrb	r3, [r3]
 514 01b2 022B     		cmp	r3, #2
 515 01b4 4BD0     		beq	.L16
 516              		.loc 1 1801 0 is_stmt 0 discriminator 1
 517 01b6 2E4A     		ldr	r2, .L42
 518 01b8 1278     		ldrb	r2, [r2]
 519 01ba D207     		lsls	r2, r2, #31
ARM GAS  C:\Users\owono\AppData\Local\Temp\ccFLv7mf.s 			page 42


 520 01bc 47D5     		bpl	.L16
1802:Generated_Source\PSoC4/ble_eventHandler.c ****             {
1803:Generated_Source\PSoC4/ble_eventHandler.c ****                 /* After CyBle_GappStartAdvertisement first event indicates that advertising has be
1804:Generated_Source\PSoC4/ble_eventHandler.c ****                 if(0u != (cyBle_eventHandlerFlag & CYBLE_START_FLAG))
 521              		.loc 1 1804 0 is_stmt 1
 522 01be 2C4A     		ldr	r2, .L42
 523 01c0 1278     		ldrb	r2, [r2]
 524 01c2 5207     		lsls	r2, r2, #29
 525 01c4 08D5     		bpl	.L38
1805:Generated_Source\PSoC4/ble_eventHandler.c ****                 {
1806:Generated_Source\PSoC4/ble_eventHandler.c ****                     CyBle_SetState(CYBLE_STATE_ADVERTISING);
 526              		.loc 1 1806 0
 527 01c6 0322     		movs	r2, #3
 528 01c8 304B     		ldr	r3, .L42+28
 529 01ca 1A70     		strb	r2, [r3]
1807:Generated_Source\PSoC4/ble_eventHandler.c ****                     cyBle_eventHandlerFlag &= (uint8)~CYBLE_START_FLAG;
 530              		.loc 1 1807 0
 531 01cc 284A     		ldr	r2, .L42
 532 01ce 1378     		ldrb	r3, [r2]
 533 01d0 0421     		movs	r1, #4
 534 01d2 8B43     		bics	r3, r1
 535 01d4 1370     		strb	r3, [r2]
 536 01d6 3AE0     		b	.L16
 537              	.L38:
1808:Generated_Source\PSoC4/ble_eventHandler.c ****                 }
1809:Generated_Source\PSoC4/ble_eventHandler.c ****                 /* When application initiated stop advertisement */
1810:Generated_Source\PSoC4/ble_eventHandler.c ****                 else if(0u != (cyBle_eventHandlerFlag & CYBLE_STOP_FLAG))
 538              		.loc 1 1810 0
 539 01d8 254A     		ldr	r2, .L42
 540 01da 1278     		ldrb	r2, [r2]
 541 01dc 1207     		lsls	r2, r2, #28
 542 01de 08D5     		bpl	.L39
1811:Generated_Source\PSoC4/ble_eventHandler.c ****                 {
1812:Generated_Source\PSoC4/ble_eventHandler.c ****                     CyBle_SetState(CYBLE_STATE_DISCONNECTED);  
 543              		.loc 1 1812 0
 544 01e0 0422     		movs	r2, #4
 545 01e2 2A4B     		ldr	r3, .L42+28
 546 01e4 1A70     		strb	r2, [r3]
1813:Generated_Source\PSoC4/ble_eventHandler.c ****                     cyBle_eventHandlerFlag &= (uint8)~CYBLE_STOP_FLAG;
 547              		.loc 1 1813 0
 548 01e6 224A     		ldr	r2, .L42
 549 01e8 1378     		ldrb	r3, [r2]
 550 01ea 0821     		movs	r1, #8
 551 01ec 8B43     		bics	r3, r1
 552 01ee 1370     		strb	r3, [r2]
 553 01f0 2DE0     		b	.L16
 554              	.L39:
1814:Generated_Source\PSoC4/ble_eventHandler.c ****                 }
1815:Generated_Source\PSoC4/ble_eventHandler.c ****                 else /* Following event indicates that advertising has been stopped */
1816:Generated_Source\PSoC4/ble_eventHandler.c ****                 {
1817:Generated_Source\PSoC4/ble_eventHandler.c ****                     if(CyBle_GetState() == CYBLE_STATE_ADVERTISING)
 555              		.loc 1 1817 0
 556 01f2 032B     		cmp	r3, #3
 557 01f4 2BD1     		bne	.L16
1818:Generated_Source\PSoC4/ble_eventHandler.c ****                     {
1819:Generated_Source\PSoC4/ble_eventHandler.c ****                         CyBle_SetState(CYBLE_STATE_DISCONNECTED);
 558              		.loc 1 1819 0
ARM GAS  C:\Users\owono\AppData\Local\Temp\ccFLv7mf.s 			page 43


 559 01f6 0422     		movs	r2, #4
 560 01f8 244B     		ldr	r3, .L42+28
 561 01fa 1A70     		strb	r2, [r3]
 562 01fc 27E0     		b	.L16
 563              	.L29:
1820:Generated_Source\PSoC4/ble_eventHandler.c ****                     #if ((CYBLE_SLOW_ADV_ENABLED != 0u) && (CYBLE_FAST_ADV_TIMEOUT != 0u))
1821:Generated_Source\PSoC4/ble_eventHandler.c ****                         if(cyBle_advertisingIntervalType == CYBLE_ADVERTISING_FAST)
1822:Generated_Source\PSoC4/ble_eventHandler.c ****                         {
1823:Generated_Source\PSoC4/ble_eventHandler.c ****                             /* When fast advertising time out occur: Start slow advertising */
1824:Generated_Source\PSoC4/ble_eventHandler.c ****                             if(CyBle_GappStartAdvertisement(CYBLE_ADVERTISING_SLOW) == CYBLE_ERROR_
1825:Generated_Source\PSoC4/ble_eventHandler.c ****                             {
1826:Generated_Source\PSoC4/ble_eventHandler.c ****                                 CyBle_SetState(CYBLE_STATE_ADVERTISING);
1827:Generated_Source\PSoC4/ble_eventHandler.c ****                             }
1828:Generated_Source\PSoC4/ble_eventHandler.c ****                         }
1829:Generated_Source\PSoC4/ble_eventHandler.c ****                     #endif /* CYBLE_SLOW_ADV_ENABLED */
1830:Generated_Source\PSoC4/ble_eventHandler.c ****                     }
1831:Generated_Source\PSoC4/ble_eventHandler.c ****                 }
1832:Generated_Source\PSoC4/ble_eventHandler.c ****             }
1833:Generated_Source\PSoC4/ble_eventHandler.c ****             break;
1834:Generated_Source\PSoC4/ble_eventHandler.c ****         #endif /* CYBLE_GAP_ROLE_PERIPHERAL || CYBLE_GAP_ROLE_BROADCASTER */
1835:Generated_Source\PSoC4/ble_eventHandler.c ****         
1836:Generated_Source\PSoC4/ble_eventHandler.c ****         #if(CYBLE_GAP_ROLE_CENTRAL || CYBLE_GAP_ROLE_OBSERVER)    
1837:Generated_Source\PSoC4/ble_eventHandler.c ****         case CYBLE_EVT_GAPC_SCAN_START_STOP:
1838:Generated_Source\PSoC4/ble_eventHandler.c ****             #ifdef CYBLE_CPS_CLIENT
1839:Generated_Source\PSoC4/ble_eventHandler.c ****                 CyBle_CpscScanStartStopEventHandler();
1840:Generated_Source\PSoC4/ble_eventHandler.c ****             #endif /* CYBLE_CPS_CLIENT */
1841:Generated_Source\PSoC4/ble_eventHandler.c ****             
1842:Generated_Source\PSoC4/ble_eventHandler.c ****             if((CYBLE_STATE_CONNECTED != CyBle_GetState()) && ((cyBle_eventHandlerFlag & CYBLE_CALL
1843:Generated_Source\PSoC4/ble_eventHandler.c ****             {
1844:Generated_Source\PSoC4/ble_eventHandler.c ****                 /* After CyBle_GapcStartScan first event indicates that scanning has been started *
1845:Generated_Source\PSoC4/ble_eventHandler.c ****                 if(0u != (cyBle_eventHandlerFlag & CYBLE_START_FLAG))
1846:Generated_Source\PSoC4/ble_eventHandler.c ****                 {
1847:Generated_Source\PSoC4/ble_eventHandler.c ****                     CyBle_SetState(CYBLE_STATE_SCANNING);
1848:Generated_Source\PSoC4/ble_eventHandler.c ****                     cyBle_eventHandlerFlag &= (uint8)~CYBLE_START_FLAG;
1849:Generated_Source\PSoC4/ble_eventHandler.c ****                 }
1850:Generated_Source\PSoC4/ble_eventHandler.c ****                 /* When application initiated stop scanning */
1851:Generated_Source\PSoC4/ble_eventHandler.c ****                 else if(0u != (cyBle_eventHandlerFlag & CYBLE_STOP_FLAG))
1852:Generated_Source\PSoC4/ble_eventHandler.c ****                 {
1853:Generated_Source\PSoC4/ble_eventHandler.c ****                     CyBle_SetState(CYBLE_STATE_DISCONNECTED);  
1854:Generated_Source\PSoC4/ble_eventHandler.c ****                     cyBle_eventHandlerFlag &= (uint8)~CYBLE_STOP_FLAG;
1855:Generated_Source\PSoC4/ble_eventHandler.c ****                 }
1856:Generated_Source\PSoC4/ble_eventHandler.c ****                 else /* Following event indicates that scanning has been stopped by stack */
1857:Generated_Source\PSoC4/ble_eventHandler.c ****                 {
1858:Generated_Source\PSoC4/ble_eventHandler.c ****                     if(CyBle_GetState() == CYBLE_STATE_SCANNING)
1859:Generated_Source\PSoC4/ble_eventHandler.c ****                     {
1860:Generated_Source\PSoC4/ble_eventHandler.c ****                         CyBle_SetState(CYBLE_STATE_DISCONNECTED);  
1861:Generated_Source\PSoC4/ble_eventHandler.c ****                     #if ((CYBLE_SLOW_SCAN_ENABLED != 0u) && (CYBLE_FAST_SCAN_TIMEOUT != 0u))
1862:Generated_Source\PSoC4/ble_eventHandler.c ****                         if(cyBle_scanningIntervalType == CYBLE_SCANNING_FAST)
1863:Generated_Source\PSoC4/ble_eventHandler.c ****                         {
1864:Generated_Source\PSoC4/ble_eventHandler.c ****                             /* When fast scanning time out occur: Start slow scanning */
1865:Generated_Source\PSoC4/ble_eventHandler.c ****                             if(CyBle_GapcStartScan(CYBLE_SCANNING_SLOW) == CYBLE_ERROR_OK)
1866:Generated_Source\PSoC4/ble_eventHandler.c ****                             {
1867:Generated_Source\PSoC4/ble_eventHandler.c ****                                 CyBle_SetState(CYBLE_STATE_SCANNING);
1868:Generated_Source\PSoC4/ble_eventHandler.c ****                             }
1869:Generated_Source\PSoC4/ble_eventHandler.c ****                         }
1870:Generated_Source\PSoC4/ble_eventHandler.c ****                     #endif /* CYBLE_SLOW_SCAN_ENABLED */
1871:Generated_Source\PSoC4/ble_eventHandler.c ****                     }
ARM GAS  C:\Users\owono\AppData\Local\Temp\ccFLv7mf.s 			page 44


1872:Generated_Source\PSoC4/ble_eventHandler.c ****                 }
1873:Generated_Source\PSoC4/ble_eventHandler.c ****             }
1874:Generated_Source\PSoC4/ble_eventHandler.c ****             break;
1875:Generated_Source\PSoC4/ble_eventHandler.c ****         #endif /* CYBLE_GAP_ROLE_CENTRAL || CYBLE_GAP_ROLE_OBSERVER */
1876:Generated_Source\PSoC4/ble_eventHandler.c **** 
1877:Generated_Source\PSoC4/ble_eventHandler.c ****         /**********************************************************
1878:Generated_Source\PSoC4/ble_eventHandler.c ****         * L2AP events 
1879:Generated_Source\PSoC4/ble_eventHandler.c ****         ************************************************************/
1880:Generated_Source\PSoC4/ble_eventHandler.c ****         case CYBLE_EVT_L2CAP_CONN_PARAM_UPDATE_RSP:
1881:Generated_Source\PSoC4/ble_eventHandler.c ****             CyBle_L2Cap_ConnParamUpdateRspEventHandler(*(uint16 *)eventParam);
1882:Generated_Source\PSoC4/ble_eventHandler.c ****             break;
1883:Generated_Source\PSoC4/ble_eventHandler.c ****         
1884:Generated_Source\PSoC4/ble_eventHandler.c ****         /**********************************************************
1885:Generated_Source\PSoC4/ble_eventHandler.c ****         * GATT events
1886:Generated_Source\PSoC4/ble_eventHandler.c ****         ************************************************************/        
1887:Generated_Source\PSoC4/ble_eventHandler.c ****         case CYBLE_EVT_GATT_CONNECT_IND:
1888:Generated_Source\PSoC4/ble_eventHandler.c ****             cyBle_connHandle = *(CYBLE_CONN_HANDLE_T *)eventParam;
 564              		.loc 1 1888 0
 565 01fe 284E     		ldr	r6, .L42+48
 566 0200 0222     		movs	r2, #2
 567 0202 2900     		movs	r1, r5
 568 0204 3000     		movs	r0, r6
 569              	.LVL42:
 570 0206 FFF7FEFF 		bl	memcpy
 571              	.LVL43:
1889:Generated_Source\PSoC4/ble_eventHandler.c ****             cyBle_busyStatus = CYBLE_STACK_STATE_FREE;
 572              		.loc 1 1889 0
 573 020a 0022     		movs	r2, #0
 574 020c 204B     		ldr	r3, .L42+32
 575 020e 1A70     		strb	r2, [r3]
1890:Generated_Source\PSoC4/ble_eventHandler.c ****             
1891:Generated_Source\PSoC4/ble_eventHandler.c ****         #if((CYBLE_GATT_ROLE_SERVER) && (CYBLE_GATT_DB_CCCD_COUNT != 0u) && \
1892:Generated_Source\PSoC4/ble_eventHandler.c ****             (CYBLE_BONDING_REQUIREMENT == CYBLE_BONDING_YES))
1893:Generated_Source\PSoC4/ble_eventHandler.c ****             /* Init CCCD values in RAM when bonding is enabled */
1894:Generated_Source\PSoC4/ble_eventHandler.c ****         	(void) memcpy (cyBle_attValuesCCCD, cyBle_flashStorage.attValuesCCCDFlashMemory[cyBle_conn
 576              		.loc 1 1894 0
 577 0210 3178     		ldrb	r1, [r6]
 578 0212 9E31     		adds	r1, r1, #158
 579 0214 8900     		lsls	r1, r1, #2
 580 0216 254B     		ldr	r3, .L42+60
 581 0218 5918     		adds	r1, r3, r1
 582 021a 0131     		adds	r1, r1, #1
 583 021c 0432     		adds	r2, r2, #4
 584 021e 2448     		ldr	r0, .L42+64
 585 0220 FFF7FEFF 		bl	memcpy
 586              	.LVL44:
1895:Generated_Source\PSoC4/ble_eventHandler.c ****                             CYBLE_GATT_DB_CCCD_COUNT);
1896:Generated_Source\PSoC4/ble_eventHandler.c ****         #endif /* CYBLE_GATT_ROLE_SERVER && (CYBLE_BONDING_REQUIREMENT == CYBLE_BONDING_YES) */
1897:Generated_Source\PSoC4/ble_eventHandler.c ****         
1898:Generated_Source\PSoC4/ble_eventHandler.c ****         #if (CYBLE_GATT_ROLE_CLIENT)
1899:Generated_Source\PSoC4/ble_eventHandler.c ****             CyBle_SetClientState(CYBLE_CLIENT_STATE_CONNECTED);
1900:Generated_Source\PSoC4/ble_eventHandler.c ****         #endif /* CYBLE_GATT_ROLE_CLIENT */
1901:Generated_Source\PSoC4/ble_eventHandler.c ****         
1902:Generated_Source\PSoC4/ble_eventHandler.c ****             CyBle_GattConnectReqHandler();
1903:Generated_Source\PSoC4/ble_eventHandler.c ****             break;
 587              		.loc 1 1903 0
 588 0224 13E0     		b	.L16
ARM GAS  C:\Users\owono\AppData\Local\Temp\ccFLv7mf.s 			page 45


 589              	.LVL45:
 590              	.L26:
1904:Generated_Source\PSoC4/ble_eventHandler.c **** 
1905:Generated_Source\PSoC4/ble_eventHandler.c ****         case CYBLE_EVT_GATT_DISCONNECT_IND:
1906:Generated_Source\PSoC4/ble_eventHandler.c ****             CyBle_GattDisconnectEventHandler();
 591              		.loc 1 1906 0
 592 0226 FFF7FEFF 		bl	CyBle_GattDisconnectEventHandler
 593              	.LVL46:
1907:Generated_Source\PSoC4/ble_eventHandler.c ****             break;
 594              		.loc 1 1907 0
 595 022a 10E0     		b	.L16
 596              	.LVL47:
 597              	.L32:
 598              	.LBB9:
1908:Generated_Source\PSoC4/ble_eventHandler.c **** 
1909:Generated_Source\PSoC4/ble_eventHandler.c ****     #if((CYBLE_GATT_ROLE_SERVER) || (CYBLE_GATT_ROLE_CLIENT))
1910:Generated_Source\PSoC4/ble_eventHandler.c ****         case CYBLE_EVT_GATTS_XCNHG_MTU_REQ:
1911:Generated_Source\PSoC4/ble_eventHandler.c ****             {
1912:Generated_Source\PSoC4/ble_eventHandler.c ****                 uint16 cyBle_mtuSize;
1913:Generated_Source\PSoC4/ble_eventHandler.c ****                 if(CYBLE_GATT_MTU > ((CYBLE_GATT_XCHG_MTU_PARAM_T *)eventParam)->mtu)
 599              		.loc 1 1913 0
 600 022c 6988     		ldrh	r1, [r5, #2]
 601 022e 1629     		cmp	r1, #22
 602 0230 00D9     		bls	.L40
1914:Generated_Source\PSoC4/ble_eventHandler.c ****                 {
1915:Generated_Source\PSoC4/ble_eventHandler.c ****                     cyBle_mtuSize = ((CYBLE_GATT_XCHG_MTU_PARAM_T *)eventParam)->mtu;
1916:Generated_Source\PSoC4/ble_eventHandler.c ****                 }
1917:Generated_Source\PSoC4/ble_eventHandler.c ****                 else
1918:Generated_Source\PSoC4/ble_eventHandler.c ****                 {
1919:Generated_Source\PSoC4/ble_eventHandler.c ****                     cyBle_mtuSize = CYBLE_GATT_MTU;
 603              		.loc 1 1919 0
 604 0232 1721     		movs	r1, #23
 605              	.L40:
 606              	.LVL48:
1920:Generated_Source\PSoC4/ble_eventHandler.c ****                 }
1921:Generated_Source\PSoC4/ble_eventHandler.c ****                 (void)CyBle_GattsExchangeMtuRsp(((CYBLE_GATT_XCHG_MTU_PARAM_T *)eventParam)->connHa
 607              		.loc 1 1921 0
 608 0234 2888     		ldrh	r0, [r5]
 609              	.LVL49:
 610 0236 FFF7FEFF 		bl	CyBle_GattsExchangeMtuRsp
 611              	.LVL50:
 612              	.LBE9:
1922:Generated_Source\PSoC4/ble_eventHandler.c ****             }
1923:Generated_Source\PSoC4/ble_eventHandler.c ****             break;
 613              		.loc 1 1923 0
 614 023a 08E0     		b	.L16
 615              	.LVL51:
 616              	.L30:
1924:Generated_Source\PSoC4/ble_eventHandler.c ****     #endif /* CYBLE_GATT_ROLE_SERVER || CYBLE_GATT_ROLE_CLIENT */
1925:Generated_Source\PSoC4/ble_eventHandler.c ****     
1926:Generated_Source\PSoC4/ble_eventHandler.c ****     #if (CYBLE_GATT_ROLE_CLIENT)
1927:Generated_Source\PSoC4/ble_eventHandler.c ****         case CYBLE_EVT_GAPC_SCAN_PROGRESS_RESULT:
1928:Generated_Source\PSoC4/ble_eventHandler.c ****         #ifdef CYBLE_CPS_CLIENT
1929:Generated_Source\PSoC4/ble_eventHandler.c ****             CyBle_CpscScanProcessEventHandler((CYBLE_GAPC_ADV_REPORT_T *)eventParam);
1930:Generated_Source\PSoC4/ble_eventHandler.c ****         #endif /* CYBLE_CPS_CLIENT */
1931:Generated_Source\PSoC4/ble_eventHandler.c ****             break;
1932:Generated_Source\PSoC4/ble_eventHandler.c ****     #endif /* CYBLE_GATT_ROLE_CLIENT */
ARM GAS  C:\Users\owono\AppData\Local\Temp\ccFLv7mf.s 			page 46


1933:Generated_Source\PSoC4/ble_eventHandler.c **** 
1934:Generated_Source\PSoC4/ble_eventHandler.c ****     #if(CYBLE_GATT_ROLE_SERVER)
1935:Generated_Source\PSoC4/ble_eventHandler.c ****         case CYBLE_EVT_GATTS_WRITE_REQ:
1936:Generated_Source\PSoC4/ble_eventHandler.c ****             CyBle_WriteReqHandler((CYBLE_GATTS_WRITE_REQ_PARAM_T *)eventParam);
 617              		.loc 1 1936 0
 618 023c 2800     		movs	r0, r5
 619              	.LVL52:
 620 023e FFF7FEFF 		bl	CyBle_WriteReqHandler
 621              	.LVL53:
1937:Generated_Source\PSoC4/ble_eventHandler.c ****             break;
 622              		.loc 1 1937 0
 623 0242 04E0     		b	.L16
 624              	.LVL54:
 625              	.L31:
1938:Generated_Source\PSoC4/ble_eventHandler.c **** 
1939:Generated_Source\PSoC4/ble_eventHandler.c ****         case CYBLE_EVT_GATTS_WRITE_CMD_REQ:
1940:Generated_Source\PSoC4/ble_eventHandler.c ****         #ifdef CYBLE_AIOS_SERVER
1941:Generated_Source\PSoC4/ble_eventHandler.c ****             if((cyBle_eventHandlerFlag & CYBLE_CALLBACK) != 0u)
1942:Generated_Source\PSoC4/ble_eventHandler.c ****             {
1943:Generated_Source\PSoC4/ble_eventHandler.c ****                 (void)CyBle_AiossWriteEventHandler((CYBLE_GATTS_WRITE_REQ_PARAM_T *)eventParam);
1944:Generated_Source\PSoC4/ble_eventHandler.c ****             }
1945:Generated_Source\PSoC4/ble_eventHandler.c ****         #endif /* CYBLE_AIOS_SERVER */
1946:Generated_Source\PSoC4/ble_eventHandler.c ****         #ifdef CYBLE_IAS_SERVER
1947:Generated_Source\PSoC4/ble_eventHandler.c ****             if((cyBle_eventHandlerFlag & CYBLE_CALLBACK) != 0u)
1948:Generated_Source\PSoC4/ble_eventHandler.c ****             {
1949:Generated_Source\PSoC4/ble_eventHandler.c ****                 (void)CyBle_IassWriteCmdEventHandler((CYBLE_GATTS_WRITE_REQ_PARAM_T *)eventParam);
1950:Generated_Source\PSoC4/ble_eventHandler.c ****             }
1951:Generated_Source\PSoC4/ble_eventHandler.c ****         #endif /* CYBLE_IAS_SERVER */
1952:Generated_Source\PSoC4/ble_eventHandler.c ****         #ifdef CYBLE_IPS_SERVER
1953:Generated_Source\PSoC4/ble_eventHandler.c ****             if((cyBle_eventHandlerFlag & CYBLE_CALLBACK) != 0u)
1954:Generated_Source\PSoC4/ble_eventHandler.c ****             {
1955:Generated_Source\PSoC4/ble_eventHandler.c ****                 (void)CyBle_IpssWriteCmdEventHandler((CYBLE_GATTS_WRITE_REQ_PARAM_T *)eventParam);
1956:Generated_Source\PSoC4/ble_eventHandler.c ****             }
1957:Generated_Source\PSoC4/ble_eventHandler.c ****         #endif /* CYBLE_IPS_SERVER */
1958:Generated_Source\PSoC4/ble_eventHandler.c ****         #ifdef CYBLE_HIDS_SERVER
1959:Generated_Source\PSoC4/ble_eventHandler.c ****             if((cyBle_eventHandlerFlag & CYBLE_CALLBACK) != 0u)
1960:Generated_Source\PSoC4/ble_eventHandler.c ****             {
1961:Generated_Source\PSoC4/ble_eventHandler.c ****                 (void)CyBle_HidssWriteEventHandler((CYBLE_GATTS_WRITE_REQ_PARAM_T *)eventParam);
1962:Generated_Source\PSoC4/ble_eventHandler.c ****             }
1963:Generated_Source\PSoC4/ble_eventHandler.c ****         #endif /* CYBLE_HIDS_SERVER */
1964:Generated_Source\PSoC4/ble_eventHandler.c ****         #ifdef CYBLE_PASS_SERVER
1965:Generated_Source\PSoC4/ble_eventHandler.c ****             if((cyBle_eventHandlerFlag & CYBLE_CALLBACK) != 0u)
1966:Generated_Source\PSoC4/ble_eventHandler.c ****             {
1967:Generated_Source\PSoC4/ble_eventHandler.c ****                 (void)CyBle_PasssWriteCmdEventHandler((CYBLE_GATTS_WRITE_REQ_PARAM_T *)eventParam);
1968:Generated_Source\PSoC4/ble_eventHandler.c ****             }
1969:Generated_Source\PSoC4/ble_eventHandler.c ****         #endif /* CYBLE_PASS_SERVER */
1970:Generated_Source\PSoC4/ble_eventHandler.c ****         #ifdef CYBLE_RTUS_SERVER
1971:Generated_Source\PSoC4/ble_eventHandler.c ****             if((cyBle_eventHandlerFlag & CYBLE_CALLBACK) != 0u)
1972:Generated_Source\PSoC4/ble_eventHandler.c ****             {
1973:Generated_Source\PSoC4/ble_eventHandler.c ****                 (void)CyBle_RtussWriteCmdEventHandler((CYBLE_GATTS_WRITE_REQ_PARAM_T *)eventParam);
1974:Generated_Source\PSoC4/ble_eventHandler.c ****             }
1975:Generated_Source\PSoC4/ble_eventHandler.c ****         #endif /* CYBLE_RTUS_SERVER */
1976:Generated_Source\PSoC4/ble_eventHandler.c ****         #ifdef CYBLE_SCPS_SERVER
1977:Generated_Source\PSoC4/ble_eventHandler.c ****             if((cyBle_eventHandlerFlag & CYBLE_CALLBACK) != 0u)
1978:Generated_Source\PSoC4/ble_eventHandler.c ****             {
1979:Generated_Source\PSoC4/ble_eventHandler.c ****                 (void)CyBle_ScpssWriteEventHandler((CYBLE_GATTS_WRITE_REQ_PARAM_T *)eventParam);
1980:Generated_Source\PSoC4/ble_eventHandler.c ****             }
ARM GAS  C:\Users\owono\AppData\Local\Temp\ccFLv7mf.s 			page 47


1981:Generated_Source\PSoC4/ble_eventHandler.c ****         #endif /* CYBLE_SCPS_SERVER */
1982:Generated_Source\PSoC4/ble_eventHandler.c ****             break;
1983:Generated_Source\PSoC4/ble_eventHandler.c ****         
1984:Generated_Source\PSoC4/ble_eventHandler.c ****         case CYBLE_EVT_GATTS_PREP_WRITE_REQ:
1985:Generated_Source\PSoC4/ble_eventHandler.c ****         #ifdef CYBLE_BMS_SERVER
1986:Generated_Source\PSoC4/ble_eventHandler.c ****             CyBle_BmssPrepareWriteRequestEventHandler((CYBLE_GATTS_PREP_WRITE_REQ_PARAM_T *)eventPa
1987:Generated_Source\PSoC4/ble_eventHandler.c ****         #endif /* CYBLE_BMS_SERVER */
1988:Generated_Source\PSoC4/ble_eventHandler.c ****         #ifdef CYBLE_BTS_SERVER
1989:Generated_Source\PSoC4/ble_eventHandler.c ****             if((cyBle_eventHandlerFlag & CYBLE_CALLBACK) != 0u)
1990:Generated_Source\PSoC4/ble_eventHandler.c ****             {
1991:Generated_Source\PSoC4/ble_eventHandler.c ****                 CyBle_BtssPrepareWriteRequestEventHandler((CYBLE_GATTS_PREP_WRITE_REQ_PARAM_T *)eve
1992:Generated_Source\PSoC4/ble_eventHandler.c ****             }
1993:Generated_Source\PSoC4/ble_eventHandler.c ****         #endif /* CYBLE_BTS_SERVER */
1994:Generated_Source\PSoC4/ble_eventHandler.c ****         #ifdef CYBLE_ESS_SERVER
1995:Generated_Source\PSoC4/ble_eventHandler.c ****             if((cyBle_eventHandlerFlag & CYBLE_CALLBACK) != 0u)
1996:Generated_Source\PSoC4/ble_eventHandler.c ****             {
1997:Generated_Source\PSoC4/ble_eventHandler.c ****                 CyBle_EsssPrepareWriteRequestEventHandler((CYBLE_GATTS_PREP_WRITE_REQ_PARAM_T *)eve
1998:Generated_Source\PSoC4/ble_eventHandler.c ****             }
1999:Generated_Source\PSoC4/ble_eventHandler.c ****         #endif /* CYBLE_ESS_SERVER */
2000:Generated_Source\PSoC4/ble_eventHandler.c ****         #ifdef CYBLE_HPS_SERVER
2001:Generated_Source\PSoC4/ble_eventHandler.c ****             if((cyBle_eventHandlerFlag & CYBLE_CALLBACK) != 0u)
2002:Generated_Source\PSoC4/ble_eventHandler.c ****             {
2003:Generated_Source\PSoC4/ble_eventHandler.c ****                 CyBle_HpssPrepareWriteRequestEventHandler((CYBLE_GATTS_PREP_WRITE_REQ_PARAM_T *)eve
2004:Generated_Source\PSoC4/ble_eventHandler.c ****             }
2005:Generated_Source\PSoC4/ble_eventHandler.c ****         #endif /* CYBLE_HPS_SERVER */
2006:Generated_Source\PSoC4/ble_eventHandler.c ****         #ifdef CYBLE_IPS_SERVER
2007:Generated_Source\PSoC4/ble_eventHandler.c ****             if((cyBle_eventHandlerFlag & CYBLE_CALLBACK) != 0u)
2008:Generated_Source\PSoC4/ble_eventHandler.c ****             {
2009:Generated_Source\PSoC4/ble_eventHandler.c ****                 CyBle_IpssPrepareWriteRequestEventHandler((CYBLE_GATTS_PREP_WRITE_REQ_PARAM_T *)eve
2010:Generated_Source\PSoC4/ble_eventHandler.c ****             }
2011:Generated_Source\PSoC4/ble_eventHandler.c ****         #endif /* CYBLE_IPS_SERVER */
2012:Generated_Source\PSoC4/ble_eventHandler.c ****         #ifdef CYBLE_UDS_SERVER
2013:Generated_Source\PSoC4/ble_eventHandler.c ****             if((cyBle_eventHandlerFlag & CYBLE_CALLBACK) != 0u)
2014:Generated_Source\PSoC4/ble_eventHandler.c ****             {
2015:Generated_Source\PSoC4/ble_eventHandler.c ****                 CyBle_UdssPrepareWriteRequestEventHandler((CYBLE_GATTS_PREP_WRITE_REQ_PARAM_T *)eve
2016:Generated_Source\PSoC4/ble_eventHandler.c ****             }
2017:Generated_Source\PSoC4/ble_eventHandler.c ****         #endif /* CYBLE_UDS_SERVER */
2018:Generated_Source\PSoC4/ble_eventHandler.c ****             break;
2019:Generated_Source\PSoC4/ble_eventHandler.c **** 
2020:Generated_Source\PSoC4/ble_eventHandler.c ****         case CYBLE_EVT_GATTS_EXEC_WRITE_REQ:
2021:Generated_Source\PSoC4/ble_eventHandler.c ****         #ifdef CYBLE_BMS_SERVER
2022:Generated_Source\PSoC4/ble_eventHandler.c ****             CyBle_BmssExecuteWriteRequestEventHandler((CYBLE_GATTS_EXEC_WRITE_REQ_T *)eventParam);
2023:Generated_Source\PSoC4/ble_eventHandler.c ****         #endif /* CYBLE_BMS_SERVER */
2024:Generated_Source\PSoC4/ble_eventHandler.c ****         #ifdef CYBLE_BTS_SERVER
2025:Generated_Source\PSoC4/ble_eventHandler.c ****             CyBle_BtssExecuteWriteRequestEventHandler((CYBLE_GATTS_EXEC_WRITE_REQ_T *)eventParam);
2026:Generated_Source\PSoC4/ble_eventHandler.c ****         #endif /* CYBLE_BTS_SERVER */
2027:Generated_Source\PSoC4/ble_eventHandler.c ****         #ifdef CYBLE_ESS_SERVER
2028:Generated_Source\PSoC4/ble_eventHandler.c ****             CyBle_EsssExecuteWriteRequestEventHandler((CYBLE_GATTS_EXEC_WRITE_REQ_T *)eventParam);
2029:Generated_Source\PSoC4/ble_eventHandler.c ****         #endif /* CYBLE_ESS_SERVER */
2030:Generated_Source\PSoC4/ble_eventHandler.c ****         #ifdef CYBLE_HPS_SERVER
2031:Generated_Source\PSoC4/ble_eventHandler.c ****             CyBle_HpssExecuteWriteRequestEventHandler((CYBLE_GATTS_EXEC_WRITE_REQ_T *)eventParam);
2032:Generated_Source\PSoC4/ble_eventHandler.c ****         #endif /* CYBLE_HPS_SERVER */
2033:Generated_Source\PSoC4/ble_eventHandler.c ****         #ifdef CYBLE_IPS_SERVER
2034:Generated_Source\PSoC4/ble_eventHandler.c ****             CyBle_IpssExecuteWriteRequestEventHandler((CYBLE_GATTS_EXEC_WRITE_REQ_T *)eventParam);
2035:Generated_Source\PSoC4/ble_eventHandler.c ****         #endif /* CYBLE_IPS_SERVER */
2036:Generated_Source\PSoC4/ble_eventHandler.c **** 		#ifdef CYBLE_UDS_SERVER
2037:Generated_Source\PSoC4/ble_eventHandler.c ****             CyBle_UdssExecuteWriteRequestEventHandler((CYBLE_GATTS_EXEC_WRITE_REQ_T *)eventParam);
ARM GAS  C:\Users\owono\AppData\Local\Temp\ccFLv7mf.s 			page 48


2038:Generated_Source\PSoC4/ble_eventHandler.c ****         #endif /* CYBLE_UDS_SERVER */
2039:Generated_Source\PSoC4/ble_eventHandler.c ****             break;
2040:Generated_Source\PSoC4/ble_eventHandler.c ****         
2041:Generated_Source\PSoC4/ble_eventHandler.c ****         case CYBLE_EVT_GATTS_HANDLE_VALUE_CNF:
2042:Generated_Source\PSoC4/ble_eventHandler.c ****             CyBle_ValueConfirmation((CYBLE_CONN_HANDLE_T *)eventParam);
2043:Generated_Source\PSoC4/ble_eventHandler.c ****             break;
2044:Generated_Source\PSoC4/ble_eventHandler.c ****             
2045:Generated_Source\PSoC4/ble_eventHandler.c ****         case CYBLE_EVT_GATTS_READ_CHAR_VAL_ACCESS_REQ:
2046:Generated_Source\PSoC4/ble_eventHandler.c ****         #ifdef CYBLE_UDS_SERVER
2047:Generated_Source\PSoC4/ble_eventHandler.c ****             CyBle_UdssReadRequestEventHandler((CYBLE_GATTS_CHAR_VAL_READ_REQ_T *)eventParam);
2048:Generated_Source\PSoC4/ble_eventHandler.c ****         #endif /* CYBLE_UDS_SERVER */
2049:Generated_Source\PSoC4/ble_eventHandler.c ****             break;
2050:Generated_Source\PSoC4/ble_eventHandler.c ****             
2051:Generated_Source\PSoC4/ble_eventHandler.c ****     #endif /* CYBLE_GATT_ROLE_SERVER */
2052:Generated_Source\PSoC4/ble_eventHandler.c **** 
2053:Generated_Source\PSoC4/ble_eventHandler.c ****     #if (CYBLE_GATT_ROLE_CLIENT)
2054:Generated_Source\PSoC4/ble_eventHandler.c ****         
2055:Generated_Source\PSoC4/ble_eventHandler.c ****         case CYBLE_EVT_GATTC_READ_BY_GROUP_TYPE_RSP:
2056:Generated_Source\PSoC4/ble_eventHandler.c ****             CyBle_ReadByGroupEventHandler((CYBLE_GATTC_READ_BY_GRP_RSP_PARAM_T *)eventParam);
2057:Generated_Source\PSoC4/ble_eventHandler.c ****             break;
2058:Generated_Source\PSoC4/ble_eventHandler.c **** 
2059:Generated_Source\PSoC4/ble_eventHandler.c ****         case CYBLE_EVT_GATTC_READ_BY_TYPE_RSP:
2060:Generated_Source\PSoC4/ble_eventHandler.c ****             CyBle_ReadByTypeEventHandler((CYBLE_GATTC_READ_BY_TYPE_RSP_PARAM_T *)eventParam);
2061:Generated_Source\PSoC4/ble_eventHandler.c ****             break;
2062:Generated_Source\PSoC4/ble_eventHandler.c **** 
2063:Generated_Source\PSoC4/ble_eventHandler.c ****         case CYBLE_EVT_GATTC_READ_BLOB_RSP:
2064:Generated_Source\PSoC4/ble_eventHandler.c ****         #ifdef CYBLE_ESS_CLIENT
2065:Generated_Source\PSoC4/ble_eventHandler.c ****             CyBle_EsscReadLongRespEventHandler((CYBLE_GATTC_READ_RSP_PARAM_T *)eventParam);
2066:Generated_Source\PSoC4/ble_eventHandler.c ****         #endif /* CYBLE_ESS_CLIENT */
2067:Generated_Source\PSoC4/ble_eventHandler.c ****         #ifdef CYBLE_HPS_CLIENT
2068:Generated_Source\PSoC4/ble_eventHandler.c ****             CyBle_HpscReadLongRespEventHandler((CYBLE_GATTC_READ_RSP_PARAM_T *)eventParam);
2069:Generated_Source\PSoC4/ble_eventHandler.c ****         #endif /* CYBLE_HPS_CLIENT */
2070:Generated_Source\PSoC4/ble_eventHandler.c **** 		#ifdef CYBLE_IPS_CLIENT
2071:Generated_Source\PSoC4/ble_eventHandler.c ****             CyBle_IpscReadLongRespEventHandler((CYBLE_GATTC_READ_RSP_PARAM_T *)eventParam);
2072:Generated_Source\PSoC4/ble_eventHandler.c ****         #endif /* CYBLE_IPS_CLIENT */
2073:Generated_Source\PSoC4/ble_eventHandler.c ****         #ifdef CYBLE_UDS_CLIENT
2074:Generated_Source\PSoC4/ble_eventHandler.c ****             if((cyBle_eventHandlerFlag & CYBLE_CALLBACK) != 0u)
2075:Generated_Source\PSoC4/ble_eventHandler.c ****             {
2076:Generated_Source\PSoC4/ble_eventHandler.c ****                 CyBle_UdscReadLongRespEventHandler((CYBLE_GATTC_READ_RSP_PARAM_T *)eventParam);
2077:Generated_Source\PSoC4/ble_eventHandler.c ****             }
2078:Generated_Source\PSoC4/ble_eventHandler.c ****         #endif /* CYBLE_UDS_CLIENT */
2079:Generated_Source\PSoC4/ble_eventHandler.c ****             break;
2080:Generated_Source\PSoC4/ble_eventHandler.c ****         
2081:Generated_Source\PSoC4/ble_eventHandler.c ****         case CYBLE_EVT_GATTC_LONG_PROCEDURE_END:
2082:Generated_Source\PSoC4/ble_eventHandler.c ****             CyBle_LongProcedureEndEventHandler();
2083:Generated_Source\PSoC4/ble_eventHandler.c ****             break;
2084:Generated_Source\PSoC4/ble_eventHandler.c ****         
2085:Generated_Source\PSoC4/ble_eventHandler.c ****         case CYBLE_EVT_GATTC_FIND_INFO_RSP:
2086:Generated_Source\PSoC4/ble_eventHandler.c ****             CyBle_FindInfoEventHandler((CYBLE_GATTC_FIND_INFO_RSP_PARAM_T *)eventParam);
2087:Generated_Source\PSoC4/ble_eventHandler.c ****             break;
2088:Generated_Source\PSoC4/ble_eventHandler.c **** 
2089:Generated_Source\PSoC4/ble_eventHandler.c ****         case CYBLE_EVT_GATTC_ERROR_RSP:
2090:Generated_Source\PSoC4/ble_eventHandler.c ****             CyBle_ErrorResponseEventHandler((CYBLE_GATTC_ERR_RSP_PARAM_T *)eventParam);
2091:Generated_Source\PSoC4/ble_eventHandler.c ****             break;
2092:Generated_Source\PSoC4/ble_eventHandler.c **** 
2093:Generated_Source\PSoC4/ble_eventHandler.c ****         case CYBLE_EVT_GATTC_HANDLE_VALUE_NTF:
2094:Generated_Source\PSoC4/ble_eventHandler.c ****             CyBle_NotificationEventHandler((CYBLE_GATTC_HANDLE_VALUE_NTF_PARAM_T *)eventParam);
ARM GAS  C:\Users\owono\AppData\Local\Temp\ccFLv7mf.s 			page 49


2095:Generated_Source\PSoC4/ble_eventHandler.c ****             break;
2096:Generated_Source\PSoC4/ble_eventHandler.c **** 
2097:Generated_Source\PSoC4/ble_eventHandler.c ****         case CYBLE_EVT_GATTC_HANDLE_VALUE_IND:
2098:Generated_Source\PSoC4/ble_eventHandler.c ****             CyBle_GattcIndicationEventHandler((CYBLE_GATTC_HANDLE_VALUE_IND_PARAM_T *)eventParam);
2099:Generated_Source\PSoC4/ble_eventHandler.c ****             CyBle_IndicationEventHandler((CYBLE_GATTC_HANDLE_VALUE_IND_PARAM_T *)eventParam);
2100:Generated_Source\PSoC4/ble_eventHandler.c ****         
2101:Generated_Source\PSoC4/ble_eventHandler.c ****             /* Respond with a Handle Value Confirmation when request handled */
2102:Generated_Source\PSoC4/ble_eventHandler.c ****             if((cyBle_eventHandlerFlag & CYBLE_CALLBACK) == 0u)
2103:Generated_Source\PSoC4/ble_eventHandler.c ****             {
2104:Generated_Source\PSoC4/ble_eventHandler.c ****                 (void)CyBle_GattcConfirmation(((CYBLE_GATTC_HANDLE_VALUE_IND_PARAM_T *)eventParam)-
2105:Generated_Source\PSoC4/ble_eventHandler.c ****             }
2106:Generated_Source\PSoC4/ble_eventHandler.c ****             break;
2107:Generated_Source\PSoC4/ble_eventHandler.c ****         
2108:Generated_Source\PSoC4/ble_eventHandler.c ****         case CYBLE_EVT_GATTC_READ_RSP:
2109:Generated_Source\PSoC4/ble_eventHandler.c ****             CyBle_ReadResponseEventHandler((CYBLE_GATTC_READ_RSP_PARAM_T *)eventParam);
2110:Generated_Source\PSoC4/ble_eventHandler.c ****             break;
2111:Generated_Source\PSoC4/ble_eventHandler.c ****         
2112:Generated_Source\PSoC4/ble_eventHandler.c ****         case CYBLE_EVT_GATTC_READ_MULTI_RSP:
2113:Generated_Source\PSoC4/ble_eventHandler.c ****             CyBle_ReadMultipleResponseEventHandler((CYBLE_GATTC_READ_RSP_PARAM_T *)eventParam);
2114:Generated_Source\PSoC4/ble_eventHandler.c ****             break;
2115:Generated_Source\PSoC4/ble_eventHandler.c ****             
2116:Generated_Source\PSoC4/ble_eventHandler.c ****         case CYBLE_EVT_GATTC_WRITE_RSP:
2117:Generated_Source\PSoC4/ble_eventHandler.c ****             CyBle_GattcWriteResponseEventHandler((CYBLE_CONN_HANDLE_T *)eventParam);
2118:Generated_Source\PSoC4/ble_eventHandler.c ****             break;
2119:Generated_Source\PSoC4/ble_eventHandler.c ****             
2120:Generated_Source\PSoC4/ble_eventHandler.c ****         case CYBLE_EVT_GATTC_EXEC_WRITE_RSP:
2121:Generated_Source\PSoC4/ble_eventHandler.c ****         #ifdef CYBLE_BMS_CLIENT
2122:Generated_Source\PSoC4/ble_eventHandler.c ****             CyBle_BmscExecuteWriteResponseEventHandler((CYBLE_GATTC_EXEC_WRITE_RSP_T *)eventParam);
2123:Generated_Source\PSoC4/ble_eventHandler.c ****         #endif /* CYBLE_BMS_CLIENT */
2124:Generated_Source\PSoC4/ble_eventHandler.c ****         #ifdef CYBLE_ESS_CLIENT
2125:Generated_Source\PSoC4/ble_eventHandler.c ****             if((cyBle_eventHandlerFlag & CYBLE_CALLBACK) != 0u)
2126:Generated_Source\PSoC4/ble_eventHandler.c ****             {
2127:Generated_Source\PSoC4/ble_eventHandler.c ****                 CyBle_EsscExecuteWriteResponseEventHandler((CYBLE_GATTC_EXEC_WRITE_RSP_T *)eventPar
2128:Generated_Source\PSoC4/ble_eventHandler.c ****             }
2129:Generated_Source\PSoC4/ble_eventHandler.c ****         #endif /* CYBLE_ESS_CLIENT */
2130:Generated_Source\PSoC4/ble_eventHandler.c ****         #ifdef CYBLE_HPS_CLIENT
2131:Generated_Source\PSoC4/ble_eventHandler.c ****             if((cyBle_eventHandlerFlag & CYBLE_CALLBACK) != 0u)
2132:Generated_Source\PSoC4/ble_eventHandler.c ****             {
2133:Generated_Source\PSoC4/ble_eventHandler.c ****                 CyBle_HpscExecuteWriteResponseEventHandler((CYBLE_GATTC_EXEC_WRITE_RSP_T *)eventPar
2134:Generated_Source\PSoC4/ble_eventHandler.c ****             }
2135:Generated_Source\PSoC4/ble_eventHandler.c ****         #endif /* CYBLE_HPS_CLIENT */
2136:Generated_Source\PSoC4/ble_eventHandler.c ****         #ifdef CYBLE_IPS_CLIENT
2137:Generated_Source\PSoC4/ble_eventHandler.c ****             if((cyBle_eventHandlerFlag & CYBLE_CALLBACK) != 0u)
2138:Generated_Source\PSoC4/ble_eventHandler.c ****             {
2139:Generated_Source\PSoC4/ble_eventHandler.c ****                 CyBle_IpscExecuteWriteResponseEventHandler((CYBLE_GATTC_EXEC_WRITE_RSP_T *)eventPar
2140:Generated_Source\PSoC4/ble_eventHandler.c ****             }
2141:Generated_Source\PSoC4/ble_eventHandler.c ****         #endif /* CYBLE_IPS_CLIENT */
2142:Generated_Source\PSoC4/ble_eventHandler.c ****         #ifdef CYBLE_UDS_CLIENT
2143:Generated_Source\PSoC4/ble_eventHandler.c ****             if((cyBle_eventHandlerFlag & CYBLE_CALLBACK) != 0u)
2144:Generated_Source\PSoC4/ble_eventHandler.c ****             {
2145:Generated_Source\PSoC4/ble_eventHandler.c ****                 CyBle_UdscExecuteWriteResponseEventHandler((CYBLE_GATTC_EXEC_WRITE_RSP_T *)eventPar
2146:Generated_Source\PSoC4/ble_eventHandler.c ****             }
2147:Generated_Source\PSoC4/ble_eventHandler.c ****         #endif /* CYBLE_UDS_CLIENT */
2148:Generated_Source\PSoC4/ble_eventHandler.c ****             break;
2149:Generated_Source\PSoC4/ble_eventHandler.c ****             
2150:Generated_Source\PSoC4/ble_eventHandler.c ****     #endif /* CYBLE_GATT_ROLE_CLIENT */
2151:Generated_Source\PSoC4/ble_eventHandler.c **** 
ARM GAS  C:\Users\owono\AppData\Local\Temp\ccFLv7mf.s 			page 50


2152:Generated_Source\PSoC4/ble_eventHandler.c ****     #if((CYBLE_GAP_ROLE_PERIPHERAL || CYBLE_GAP_ROLE_CENTRAL) && (CYBLE_BONDING_REQUIREMENT == CYBL
2153:Generated_Source\PSoC4/ble_eventHandler.c **** 
2154:Generated_Source\PSoC4/ble_eventHandler.c ****         case CYBLE_EVT_PENDING_FLASH_WRITE:
2155:Generated_Source\PSoC4/ble_eventHandler.c ****             cyBle_pendingFlashWrite |= CYBLE_PENDING_STACK_FLASH_WRITE_BIT;
 626              		.loc 1 2155 0
 627 0244 1B4A     		ldr	r2, .L42+68
 628 0246 1178     		ldrb	r1, [r2]
 629 0248 0123     		movs	r3, #1
 630 024a 0B43     		orrs	r3, r1
 631 024c 1370     		strb	r3, [r2]
 632              	.LVL55:
 633              	.L16:
2156:Generated_Source\PSoC4/ble_eventHandler.c ****             break;
2157:Generated_Source\PSoC4/ble_eventHandler.c ****         
2158:Generated_Source\PSoC4/ble_eventHandler.c ****     #endif  /* (CYBLE_BONDING_REQUIREMENT == CYBLE_BONDING_YES) */
2159:Generated_Source\PSoC4/ble_eventHandler.c ****     
2160:Generated_Source\PSoC4/ble_eventHandler.c ****         default:
2161:Generated_Source\PSoC4/ble_eventHandler.c ****             break;
2162:Generated_Source\PSoC4/ble_eventHandler.c ****     }
2163:Generated_Source\PSoC4/ble_eventHandler.c **** 
2164:Generated_Source\PSoC4/ble_eventHandler.c ****     if(0u != (cyBle_eventHandlerFlag & (CYBLE_CALLBACK | CYBLE_ENABLE_ALL_EVENTS))) 
 634              		.loc 1 2164 0
 635 024e 084B     		ldr	r3, .L42
 636 0250 1A78     		ldrb	r2, [r3]
 637 0252 1123     		movs	r3, #17
 638 0254 1A42     		tst	r2, r3
 639 0256 09D0     		beq	.L15
2165:Generated_Source\PSoC4/ble_eventHandler.c ****     {
2166:Generated_Source\PSoC4/ble_eventHandler.c ****         cyBle_eventHandlerFlag &= (uint8)~CYBLE_CALLBACK;
 640              		.loc 1 2166 0
 641 0258 054A     		ldr	r2, .L42
 642 025a 1378     		ldrb	r3, [r2]
 643 025c 0121     		movs	r1, #1
 644 025e 8B43     		bics	r3, r1
 645 0260 1370     		strb	r3, [r2]
2167:Generated_Source\PSoC4/ble_eventHandler.c ****         CyBle_ApplCallback((uint32)eventCode, eventParam);
 646              		.loc 1 2167 0
 647 0262 104B     		ldr	r3, .L42+52
 648 0264 1B68     		ldr	r3, [r3]
 649 0266 2900     		movs	r1, r5
 650 0268 2000     		movs	r0, r4
 651 026a 9847     		blx	r3
 652              	.LVL56:
 653              	.L15:
2168:Generated_Source\PSoC4/ble_eventHandler.c ****     }
2169:Generated_Source\PSoC4/ble_eventHandler.c **** }
 654              		.loc 1 2169 0
 655 026c 03B0     		add	sp, sp, #12
 656              		@ sp needed
 657              	.LVL57:
 658 026e F0BD     		pop	{r4, r5, r6, r7, pc}
 659              	.L43:
 660              		.align	2
 661              	.L42:
 662 0270 00000000 		.word	cyBle_eventHandlerFlag
 663 0274 00000000 		.word	cyBle_sflashDeviceAddress
 664 0278 7CF1FF0F 		.word	268431740
ARM GAS  C:\Users\owono\AppData\Local\Temp\ccFLv7mf.s 			page 51


 665 027c 7DF1FF0F 		.word	268431741
 666 0280 7BF1FF0F 		.word	268431739
 667 0284 78F1FF0F 		.word	268431736
 668 0288 00000000 		.word	cyBle_deviceAddress
 669 028c 00000000 		.word	cyBle_state
 670 0290 00000000 		.word	cyBle_busyStatus
 671 0294 00000000 		.word	.LANCHOR0
 672 0298 E00A0000 		.word	cyBle_stackMemoryRam+2784
 673 029c 00000000 		.word	.LANCHOR1
 674 02a0 00000000 		.word	cyBle_connHandle
 675 02a4 00000000 		.word	CyBle_ApplCallback
 676 02a8 00000000 		.word	cyBle_peerBonding
 677 02ac 00000000 		.word	cyBle_flashStorage
 678 02b0 00000000 		.word	cyBle_attValuesCCCD
 679 02b4 00000000 		.word	cyBle_pendingFlashWrite
 680              		.cfi_endproc
 681              	.LFE10:
 682              		.size	CyBle_EventHandler, .-CyBle_EventHandler
 683              		.global	cyBle_authInfo
 684              		.comm	cyBle_advertisingIntervalType,1,1
 685              		.global	cyBle_gaps
 686              		.comm	cyBle_busyStatus,1,1
 687              		.comm	cyBle_eventHandlerFlag,1,1
 688              		.comm	cyBle_connHandle,2,4
 689              		.section	.rodata
 690              		.align	2
 691              		.type	cyBle_gaps, %object
 692              		.size	cyBle_gaps, 12
 693              	cyBle_gaps:
 694 0000 0100     		.short	1
 695 0002 0300     		.short	3
 696 0004 0500     		.short	5
 697 0006 0700     		.short	7
 698 0008 0900     		.short	9
 699 000a 0B00     		.short	11
 700              		.data
 701              		.align	2
 702              		.set	.LANCHOR1,. + 0
 703              		.type	cyBle_authInfo, %object
 704              		.size	cyBle_authInfo, 5
 705              	cyBle_authInfo:
 706 0000 10       		.byte	16
 707 0001 01       		.byte	1
 708 0002 10       		.byte	16
 709 0003 00       		.byte	0
 710 0004 01       		.byte	1
 711              		.bss
 712              		.align	2
 713              		.set	.LANCHOR0,. + 0
 714              		.type	gPrepWriteReqMem.6665, %object
 715              		.size	gPrepWriteReqMem.6665, 8
 716              	gPrepWriteReqMem.6665:
 717 0000 00000000 		.space	8
 717      00000000 
 718              		.text
 719              	.Letext0:
 720              		.file 2 "Generated_Source\\PSoC4\\cytypes.h"
ARM GAS  C:\Users\owono\AppData\Local\Temp\ccFLv7mf.s 			page 52


 721              		.file 3 "Generated_Source\\PSoC4\\ble_Stack.h"
 722              		.file 4 "Generated_Source\\PSoC4\\ble_StackHostMain.h"
 723              		.file 5 "Generated_Source\\PSoC4\\ble_StackGap.h"
 724              		.file 6 "Generated_Source\\PSoC4\\ble_StackGatt.h"
 725              		.file 7 "Generated_Source\\PSoC4\\ble_StackGattServer.h"
 726              		.file 8 "Generated_Source\\PSoC4\\ble.h"
 727              		.file 9 "Generated_Source\\PSoC4\\ble_gatt.h"
 728              		.file 10 "Generated_Source\\PSoC4\\ble_eventHandler.h"
 729              		.section	.debug_info,"",%progbits
 730              	.Ldebug_info0:
 731 0000 CE0F0000 		.4byte	0xfce
 732 0004 0400     		.2byte	0x4
 733 0006 00000000 		.4byte	.Ldebug_abbrev0
 734 000a 04       		.byte	0x4
 735 000b 01       		.uleb128 0x1
 736 000c FE020000 		.4byte	.LASF342
 737 0010 0C       		.byte	0xc
 738 0011 5E020000 		.4byte	.LASF343
 739 0015 4D0D0000 		.4byte	.LASF344
 740 0019 00000000 		.4byte	.Ldebug_ranges0+0
 741 001d 00000000 		.4byte	0
 742 0021 00000000 		.4byte	.Ldebug_line0
 743 0025 02       		.uleb128 0x2
 744 0026 01       		.byte	0x1
 745 0027 06       		.byte	0x6
 746 0028 CA080000 		.4byte	.LASF0
 747 002c 02       		.uleb128 0x2
 748 002d 01       		.byte	0x1
 749 002e 08       		.byte	0x8
 750 002f 1C0A0000 		.4byte	.LASF1
 751 0033 02       		.uleb128 0x2
 752 0034 02       		.byte	0x2
 753 0035 05       		.byte	0x5
 754 0036 B71E0000 		.4byte	.LASF2
 755 003a 02       		.uleb128 0x2
 756 003b 02       		.byte	0x2
 757 003c 07       		.byte	0x7
 758 003d 40230000 		.4byte	.LASF3
 759 0041 02       		.uleb128 0x2
 760 0042 04       		.byte	0x4
 761 0043 05       		.byte	0x5
 762 0044 B1060000 		.4byte	.LASF4
 763 0048 02       		.uleb128 0x2
 764 0049 04       		.byte	0x4
 765 004a 07       		.byte	0x7
 766 004b EA100000 		.4byte	.LASF5
 767 004f 02       		.uleb128 0x2
 768 0050 08       		.byte	0x8
 769 0051 05       		.byte	0x5
 770 0052 18140000 		.4byte	.LASF6
 771 0056 02       		.uleb128 0x2
 772 0057 08       		.byte	0x8
 773 0058 07       		.byte	0x7
 774 0059 581B0000 		.4byte	.LASF7
 775 005d 03       		.uleb128 0x3
 776 005e 04       		.byte	0x4
 777 005f 05       		.byte	0x5
ARM GAS  C:\Users\owono\AppData\Local\Temp\ccFLv7mf.s 			page 53


 778 0060 696E7400 		.ascii	"int\000"
 779 0064 02       		.uleb128 0x2
 780 0065 04       		.byte	0x4
 781 0066 07       		.byte	0x7
 782 0067 B5160000 		.4byte	.LASF8
 783 006b 04       		.uleb128 0x4
 784 006c 691E0000 		.4byte	.LASF9
 785 0070 02       		.byte	0x2
 786 0071 D201     		.2byte	0x1d2
 787 0073 2C000000 		.4byte	0x2c
 788 0077 04       		.uleb128 0x4
 789 0078 B8240000 		.4byte	.LASF10
 790 007c 02       		.byte	0x2
 791 007d D301     		.2byte	0x1d3
 792 007f 3A000000 		.4byte	0x3a
 793 0083 04       		.uleb128 0x4
 794 0084 79010000 		.4byte	.LASF11
 795 0088 02       		.byte	0x2
 796 0089 D401     		.2byte	0x1d4
 797 008b 48000000 		.4byte	0x48
 798 008f 02       		.uleb128 0x2
 799 0090 04       		.byte	0x4
 800 0091 04       		.byte	0x4
 801 0092 FF150000 		.4byte	.LASF12
 802 0096 02       		.uleb128 0x2
 803 0097 08       		.byte	0x8
 804 0098 04       		.byte	0x4
 805 0099 D2140000 		.4byte	.LASF13
 806 009d 02       		.uleb128 0x2
 807 009e 01       		.byte	0x1
 808 009f 08       		.byte	0x8
 809 00a0 4B0B0000 		.4byte	.LASF14
 810 00a4 05       		.uleb128 0x5
 811 00a5 6B000000 		.4byte	0x6b
 812 00a9 02       		.uleb128 0x2
 813 00aa 08       		.byte	0x8
 814 00ab 04       		.byte	0x4
 815 00ac BC190000 		.4byte	.LASF15
 816 00b0 02       		.uleb128 0x2
 817 00b1 04       		.byte	0x4
 818 00b2 07       		.byte	0x7
 819 00b3 2D000000 		.4byte	.LASF16
 820 00b7 06       		.uleb128 0x6
 821 00b8 04       		.byte	0x4
 822 00b9 07       		.uleb128 0x7
 823 00ba 04       		.byte	0x4
 824 00bb BF000000 		.4byte	0xbf
 825 00bf 08       		.uleb128 0x8
 826 00c0 CF000000 		.4byte	0xcf
 827 00c4 09       		.uleb128 0x9
 828 00c5 83000000 		.4byte	0x83
 829 00c9 09       		.uleb128 0x9
 830 00ca B7000000 		.4byte	0xb7
 831 00ce 00       		.byte	0
 832 00cf 0A       		.uleb128 0xa
 833 00d0 01       		.byte	0x1
 834 00d1 2C000000 		.4byte	0x2c
ARM GAS  C:\Users\owono\AppData\Local\Temp\ccFLv7mf.s 			page 54


 835 00d5 03       		.byte	0x3
 836 00d6 4D01     		.2byte	0x14d
 837 00d8 8D020000 		.4byte	0x28d
 838 00dc 0B       		.uleb128 0xb
 839 00dd D30B0000 		.4byte	.LASF17
 840 00e1 00       		.byte	0
 841 00e2 0B       		.uleb128 0xb
 842 00e3 34070000 		.4byte	.LASF18
 843 00e7 01       		.byte	0x1
 844 00e8 0B       		.uleb128 0xb
 845 00e9 8D1B0000 		.4byte	.LASF19
 846 00ed 02       		.byte	0x2
 847 00ee 0B       		.uleb128 0xb
 848 00ef 0B090000 		.4byte	.LASF20
 849 00f3 03       		.byte	0x3
 850 00f4 0B       		.uleb128 0xb
 851 00f5 DB230000 		.4byte	.LASF21
 852 00f9 04       		.byte	0x4
 853 00fa 0B       		.uleb128 0xb
 854 00fb EE210000 		.4byte	.LASF22
 855 00ff 05       		.byte	0x5
 856 0100 0B       		.uleb128 0xb
 857 0101 051A0000 		.4byte	.LASF23
 858 0105 06       		.byte	0x6
 859 0106 0B       		.uleb128 0xb
 860 0107 C81F0000 		.4byte	.LASF24
 861 010b 20       		.byte	0x20
 862 010c 0B       		.uleb128 0xb
 863 010d A2040000 		.4byte	.LASF25
 864 0111 21       		.byte	0x21
 865 0112 0B       		.uleb128 0xb
 866 0113 29130000 		.4byte	.LASF26
 867 0117 22       		.byte	0x22
 868 0118 0B       		.uleb128 0xb
 869 0119 A2180000 		.4byte	.LASF27
 870 011d 23       		.byte	0x23
 871 011e 0B       		.uleb128 0xb
 872 011f 17100000 		.4byte	.LASF28
 873 0123 24       		.byte	0x24
 874 0124 0B       		.uleb128 0xb
 875 0125 33100000 		.4byte	.LASF29
 876 0129 25       		.byte	0x25
 877 012a 0B       		.uleb128 0xb
 878 012b 411E0000 		.4byte	.LASF30
 879 012f 26       		.byte	0x26
 880 0130 0B       		.uleb128 0xb
 881 0131 09010000 		.4byte	.LASF31
 882 0135 27       		.byte	0x27
 883 0136 0B       		.uleb128 0xb
 884 0137 75240000 		.4byte	.LASF32
 885 013b 28       		.byte	0x28
 886 013c 0B       		.uleb128 0xb
 887 013d 4D1A0000 		.4byte	.LASF33
 888 0141 29       		.byte	0x29
 889 0142 0B       		.uleb128 0xb
 890 0143 64120000 		.4byte	.LASF34
 891 0147 2A       		.byte	0x2a
ARM GAS  C:\Users\owono\AppData\Local\Temp\ccFLv7mf.s 			page 55


 892 0148 0B       		.uleb128 0xb
 893 0149 17180000 		.4byte	.LASF35
 894 014d 2B       		.byte	0x2b
 895 014e 0B       		.uleb128 0xb
 896 014f 63220000 		.4byte	.LASF36
 897 0153 2C       		.byte	0x2c
 898 0154 0B       		.uleb128 0xb
 899 0155 72000000 		.4byte	.LASF37
 900 0159 2D       		.byte	0x2d
 901 015a 0B       		.uleb128 0xb
 902 015b 7E1E0000 		.4byte	.LASF38
 903 015f 2E       		.byte	0x2e
 904 0160 0B       		.uleb128 0xb
 905 0161 6B050000 		.4byte	.LASF39
 906 0165 2F       		.byte	0x2f
 907 0166 0B       		.uleb128 0xb
 908 0167 2A0B0000 		.4byte	.LASF40
 909 016b 30       		.byte	0x30
 910 016c 0B       		.uleb128 0xb
 911 016d 99150000 		.4byte	.LASF41
 912 0171 31       		.byte	0x31
 913 0172 0B       		.uleb128 0xb
 914 0173 230C0000 		.4byte	.LASF42
 915 0177 32       		.byte	0x32
 916 0178 0B       		.uleb128 0xb
 917 0179 640A0000 		.4byte	.LASF43
 918 017d 33       		.byte	0x33
 919 017e 0B       		.uleb128 0xb
 920 017f 8B0A0000 		.4byte	.LASF44
 921 0183 34       		.byte	0x34
 922 0184 0B       		.uleb128 0xb
 923 0185 7A200000 		.4byte	.LASF45
 924 0189 35       		.byte	0x35
 925 018a 0B       		.uleb128 0xb
 926 018b 0A050000 		.4byte	.LASF46
 927 018f 36       		.byte	0x36
 928 0190 0B       		.uleb128 0xb
 929 0191 D91A0000 		.4byte	.LASF47
 930 0195 37       		.byte	0x37
 931 0196 0B       		.uleb128 0xb
 932 0197 421F0000 		.4byte	.LASF48
 933 019b 40       		.byte	0x40
 934 019c 0B       		.uleb128 0xb
 935 019d 49010000 		.4byte	.LASF49
 936 01a1 41       		.byte	0x41
 937 01a2 0B       		.uleb128 0xb
 938 01a3 F0230000 		.4byte	.LASF50
 939 01a7 42       		.byte	0x42
 940 01a8 0B       		.uleb128 0xb
 941 01a9 761A0000 		.4byte	.LASF51
 942 01ad 43       		.byte	0x43
 943 01ae 0B       		.uleb128 0xb
 944 01af 2A0A0000 		.4byte	.LASF52
 945 01b3 44       		.byte	0x44
 946 01b4 0B       		.uleb128 0xb
 947 01b5 8C090000 		.4byte	.LASF53
 948 01b9 45       		.byte	0x45
ARM GAS  C:\Users\owono\AppData\Local\Temp\ccFLv7mf.s 			page 56


 949 01ba 0B       		.uleb128 0xb
 950 01bb 861D0000 		.4byte	.LASF54
 951 01bf 46       		.byte	0x46
 952 01c0 0B       		.uleb128 0xb
 953 01c1 681D0000 		.4byte	.LASF55
 954 01c5 47       		.byte	0x47
 955 01c6 0B       		.uleb128 0xb
 956 01c7 030B0000 		.4byte	.LASF56
 957 01cb 48       		.byte	0x48
 958 01cc 0B       		.uleb128 0xb
 959 01cd 17190000 		.4byte	.LASF57
 960 01d1 49       		.byte	0x49
 961 01d2 0B       		.uleb128 0xb
 962 01d3 7A0C0000 		.4byte	.LASF58
 963 01d7 4A       		.byte	0x4a
 964 01d8 0B       		.uleb128 0xb
 965 01d9 800B0000 		.4byte	.LASF59
 966 01dd 4B       		.byte	0x4b
 967 01de 0B       		.uleb128 0xb
 968 01df 70180000 		.4byte	.LASF60
 969 01e3 4C       		.byte	0x4c
 970 01e4 0B       		.uleb128 0xb
 971 01e5 071E0000 		.4byte	.LASF61
 972 01e9 4D       		.byte	0x4d
 973 01ea 0B       		.uleb128 0xb
 974 01eb 70060000 		.4byte	.LASF62
 975 01ef 4E       		.byte	0x4e
 976 01f0 0B       		.uleb128 0xb
 977 01f1 C2160000 		.4byte	.LASF63
 978 01f5 4F       		.byte	0x4f
 979 01f6 0B       		.uleb128 0xb
 980 01f7 A91F0000 		.4byte	.LASF64
 981 01fb 50       		.byte	0x50
 982 01fc 0B       		.uleb128 0xb
 983 01fd BD0C0000 		.4byte	.LASF65
 984 0201 51       		.byte	0x51
 985 0202 0B       		.uleb128 0xb
 986 0203 81040000 		.4byte	.LASF66
 987 0207 52       		.byte	0x52
 988 0208 0B       		.uleb128 0xb
 989 0209 AC210000 		.4byte	.LASF67
 990 020d 53       		.byte	0x53
 991 020e 0B       		.uleb128 0xb
 992 020f 97240000 		.4byte	.LASF68
 993 0213 54       		.byte	0x54
 994 0214 0B       		.uleb128 0xb
 995 0215 A4020000 		.4byte	.LASF69
 996 0219 55       		.byte	0x55
 997 021a 0B       		.uleb128 0xb
 998 021b 910D0000 		.4byte	.LASF70
 999 021f 56       		.byte	0x56
 1000 0220 0B       		.uleb128 0xb
 1001 0221 2A160000 		.4byte	.LASF71
 1002 0225 57       		.byte	0x57
 1003 0226 0B       		.uleb128 0xb
 1004 0227 52240000 		.4byte	.LASF72
 1005 022b 58       		.byte	0x58
ARM GAS  C:\Users\owono\AppData\Local\Temp\ccFLv7mf.s 			page 57


 1006 022c 0B       		.uleb128 0xb
 1007 022d D1220000 		.4byte	.LASF73
 1008 0231 70       		.byte	0x70
 1009 0232 0B       		.uleb128 0xb
 1010 0233 7C0F0000 		.4byte	.LASF74
 1011 0237 71       		.byte	0x71
 1012 0238 0B       		.uleb128 0xb
 1013 0239 36080000 		.4byte	.LASF75
 1014 023d 72       		.byte	0x72
 1015 023e 0B       		.uleb128 0xb
 1016 023f 8B1F0000 		.4byte	.LASF76
 1017 0243 73       		.byte	0x73
 1018 0244 0B       		.uleb128 0xb
 1019 0245 6A190000 		.4byte	.LASF77
 1020 0249 74       		.byte	0x74
 1021 024a 0B       		.uleb128 0xb
 1022 024b 08130000 		.4byte	.LASF78
 1023 024f 75       		.byte	0x75
 1024 0250 0B       		.uleb128 0xb
 1025 0251 E20A0000 		.4byte	.LASF79
 1026 0255 76       		.byte	0x76
 1027 0256 0B       		.uleb128 0xb
 1028 0257 001C0000 		.4byte	.LASF80
 1029 025b 77       		.byte	0x77
 1030 025c 0B       		.uleb128 0xb
 1031 025d C8020000 		.4byte	.LASF81
 1032 0261 78       		.byte	0x78
 1033 0262 0B       		.uleb128 0xb
 1034 0263 8E060000 		.4byte	.LASF82
 1035 0267 79       		.byte	0x79
 1036 0268 0B       		.uleb128 0xb
 1037 0269 2E240000 		.4byte	.LASF83
 1038 026d 7A       		.byte	0x7a
 1039 026e 0B       		.uleb128 0xb
 1040 026f FB140000 		.4byte	.LASF84
 1041 0273 FA       		.byte	0xfa
 1042 0274 0B       		.uleb128 0xb
 1043 0275 66210000 		.4byte	.LASF85
 1044 0279 FB       		.byte	0xfb
 1045 027a 0B       		.uleb128 0xb
 1046 027b C90F0000 		.4byte	.LASF86
 1047 027f FC       		.byte	0xfc
 1048 0280 0B       		.uleb128 0xb
 1049 0281 A4190000 		.4byte	.LASF87
 1050 0285 FD       		.byte	0xfd
 1051 0286 0B       		.uleb128 0xb
 1052 0287 09180000 		.4byte	.LASF88
 1053 028b FF       		.byte	0xff
 1054 028c 00       		.byte	0
 1055 028d 0A       		.uleb128 0xa
 1056 028e 02       		.byte	0x2
 1057 028f 3A000000 		.4byte	0x3a
 1058 0293 03       		.byte	0x3
 1059 0294 0204     		.2byte	0x402
 1060 0296 66030000 		.4byte	0x366
 1061 029a 0B       		.uleb128 0xb
 1062 029b 37090000 		.4byte	.LASF89
ARM GAS  C:\Users\owono\AppData\Local\Temp\ccFLv7mf.s 			page 58


 1063 029f 00       		.byte	0
 1064 02a0 0B       		.uleb128 0xb
 1065 02a1 220E0000 		.4byte	.LASF90
 1066 02a5 01       		.byte	0x1
 1067 02a6 0B       		.uleb128 0xb
 1068 02a7 BD230000 		.4byte	.LASF91
 1069 02ab 02       		.byte	0x2
 1070 02ac 0B       		.uleb128 0xb
 1071 02ad 800E0000 		.4byte	.LASF92
 1072 02b1 03       		.byte	0x3
 1073 02b2 0B       		.uleb128 0xb
 1074 02b3 8B100000 		.4byte	.LASF93
 1075 02b7 04       		.byte	0x4
 1076 02b8 0B       		.uleb128 0xb
 1077 02b9 B4140000 		.4byte	.LASF94
 1078 02bd 05       		.byte	0x5
 1079 02be 0B       		.uleb128 0xb
 1080 02bf 19210000 		.4byte	.LASF95
 1081 02c3 06       		.byte	0x6
 1082 02c4 0B       		.uleb128 0xb
 1083 02c5 5D0C0000 		.4byte	.LASF96
 1084 02c9 07       		.byte	0x7
 1085 02ca 0B       		.uleb128 0xb
 1086 02cb E1150000 		.4byte	.LASF97
 1087 02cf 08       		.byte	0x8
 1088 02d0 0B       		.uleb128 0xb
 1089 02d1 32200000 		.4byte	.LASF98
 1090 02d5 09       		.byte	0x9
 1091 02d6 0B       		.uleb128 0xb
 1092 02d7 BF240000 		.4byte	.LASF99
 1093 02db 0A       		.byte	0xa
 1094 02dc 0B       		.uleb128 0xb
 1095 02dd CD040000 		.4byte	.LASF100
 1096 02e1 0B       		.byte	0xb
 1097 02e2 0B       		.uleb128 0xb
 1098 02e3 D7210000 		.4byte	.LASF101
 1099 02e7 0C       		.byte	0xc
 1100 02e8 0B       		.uleb128 0xb
 1101 02e9 93170000 		.4byte	.LASF102
 1102 02ed 0D       		.byte	0xd
 1103 02ee 0B       		.uleb128 0xb
 1104 02ef F2110000 		.4byte	.LASF103
 1105 02f3 0E       		.byte	0xe
 1106 02f4 0B       		.uleb128 0xb
 1107 02f5 8F140000 		.4byte	.LASF104
 1108 02f9 0F       		.byte	0xf
 1109 02fa 0B       		.uleb128 0xb
 1110 02fb 30020000 		.4byte	.LASF105
 1111 02ff 10       		.byte	0x10
 1112 0300 0B       		.uleb128 0xb
 1113 0301 BD150000 		.4byte	.LASF106
 1114 0305 11       		.byte	0x11
 1115 0306 0B       		.uleb128 0xb
 1116 0307 47070000 		.4byte	.LASF107
 1117 030b 12       		.byte	0x12
 1118 030c 0B       		.uleb128 0xb
 1119 030d A2080000 		.4byte	.LASF108
ARM GAS  C:\Users\owono\AppData\Local\Temp\ccFLv7mf.s 			page 59


 1120 0311 13       		.byte	0x13
 1121 0312 0B       		.uleb128 0xb
 1122 0313 D9140000 		.4byte	.LASF109
 1123 0317 27       		.byte	0x27
 1124 0318 0B       		.uleb128 0xb
 1125 0319 05160000 		.4byte	.LASF110
 1126 031d 28       		.byte	0x28
 1127 031e 0B       		.uleb128 0xb
 1128 031f 88020000 		.4byte	.LASF111
 1129 0323 29       		.byte	0x29
 1130 0324 0B       		.uleb128 0xb
 1131 0325 C91E0000 		.4byte	.LASF112
 1132 0329 2A       		.byte	0x2a
 1133 032a 0B       		.uleb128 0xb
 1134 032b 32110000 		.4byte	.LASF113
 1135 032f 2B       		.byte	0x2b
 1136 0330 0B       		.uleb128 0xb
 1137 0331 611C0000 		.4byte	.LASF114
 1138 0335 2C       		.byte	0x2c
 1139 0336 0B       		.uleb128 0xb
 1140 0337 060E0000 		.4byte	.LASF115
 1141 033b FE       		.byte	0xfe
 1142 033c 0B       		.uleb128 0xb
 1143 033d 6C0F0000 		.4byte	.LASF116
 1144 0341 FF       		.byte	0xff
 1145 0342 0C       		.uleb128 0xc
 1146 0343 E1180000 		.4byte	.LASF117
 1147 0347 0001     		.2byte	0x100
 1148 0349 0C       		.uleb128 0xc
 1149 034a C8180000 		.4byte	.LASF118
 1150 034e 0101     		.2byte	0x101
 1151 0350 0C       		.uleb128 0xc
 1152 0351 EA070000 		.4byte	.LASF119
 1153 0355 0201     		.2byte	0x102
 1154 0357 0C       		.uleb128 0xc
 1155 0358 BA1B0000 		.4byte	.LASF120
 1156 035c 0301     		.2byte	0x103
 1157 035e 0C       		.uleb128 0xc
 1158 035f 57100000 		.4byte	.LASF121
 1159 0363 0401     		.2byte	0x104
 1160 0365 00       		.byte	0
 1161 0366 04       		.uleb128 0x4
 1162 0367 85210000 		.4byte	.LASF122
 1163 036b 03       		.byte	0x3
 1164 036c 7104     		.2byte	0x471
 1165 036e 8D020000 		.4byte	0x28d
 1166 0372 0A       		.uleb128 0xa
 1167 0373 01       		.byte	0x1
 1168 0374 2C000000 		.4byte	0x2c
 1169 0378 03       		.byte	0x3
 1170 0379 AA04     		.2byte	0x4aa
 1171 037b B6030000 		.4byte	0x3b6
 1172 037f 0B       		.uleb128 0xb
 1173 0380 D6080000 		.4byte	.LASF123
 1174 0384 01       		.byte	0x1
 1175 0385 0B       		.uleb128 0xb
 1176 0386 3B060000 		.4byte	.LASF124
ARM GAS  C:\Users\owono\AppData\Local\Temp\ccFLv7mf.s 			page 60


 1177 038a 02       		.byte	0x2
 1178 038b 0B       		.uleb128 0xb
 1179 038c EA190000 		.4byte	.LASF125
 1180 0390 03       		.byte	0x3
 1181 0391 0B       		.uleb128 0xb
 1182 0392 2B050000 		.4byte	.LASF126
 1183 0396 04       		.byte	0x4
 1184 0397 0B       		.uleb128 0xb
 1185 0398 500B0000 		.4byte	.LASF127
 1186 039c 05       		.byte	0x5
 1187 039d 0B       		.uleb128 0xb
 1188 039e 17110000 		.4byte	.LASF128
 1189 03a2 06       		.byte	0x6
 1190 03a3 0B       		.uleb128 0xb
 1191 03a4 33210000 		.4byte	.LASF129
 1192 03a8 07       		.byte	0x7
 1193 03a9 0B       		.uleb128 0xb
 1194 03aa D3100000 		.4byte	.LASF130
 1195 03ae 08       		.byte	0x8
 1196 03af 0B       		.uleb128 0xb
 1197 03b0 42150000 		.4byte	.LASF131
 1198 03b4 09       		.byte	0x9
 1199 03b5 00       		.byte	0
 1200 03b6 04       		.uleb128 0x4
 1201 03b7 75130000 		.4byte	.LASF132
 1202 03bb 03       		.byte	0x3
 1203 03bc C104     		.2byte	0x4c1
 1204 03be 72030000 		.4byte	0x372
 1205 03c2 0A       		.uleb128 0xa
 1206 03c3 01       		.byte	0x1
 1207 03c4 2C000000 		.4byte	0x2c
 1208 03c8 03       		.byte	0x3
 1209 03c9 C504     		.2byte	0x4c5
 1210 03cb E2030000 		.4byte	0x3e2
 1211 03cf 0B       		.uleb128 0xb
 1212 03d0 51210000 		.4byte	.LASF133
 1213 03d4 00       		.byte	0
 1214 03d5 0B       		.uleb128 0xb
 1215 03d6 28170000 		.4byte	.LASF134
 1216 03da 01       		.byte	0x1
 1217 03db 0B       		.uleb128 0xb
 1218 03dc BC220000 		.4byte	.LASF135
 1219 03e0 02       		.byte	0x2
 1220 03e1 00       		.byte	0
 1221 03e2 04       		.uleb128 0x4
 1222 03e3 46090000 		.4byte	.LASF136
 1223 03e7 03       		.byte	0x3
 1224 03e8 CC04     		.2byte	0x4cc
 1225 03ea C2030000 		.4byte	0x3c2
 1226 03ee 0D       		.uleb128 0xd
 1227 03ef 02       		.byte	0x2
 1228 03f0 03       		.byte	0x3
 1229 03f1 CF04     		.2byte	0x4cf
 1230 03f3 12040000 		.4byte	0x412
 1231 03f7 0E       		.uleb128 0xe
 1232 03f8 95010000 		.4byte	.LASF137
 1233 03fc 03       		.byte	0x3
ARM GAS  C:\Users\owono\AppData\Local\Temp\ccFLv7mf.s 			page 61


 1234 03fd D204     		.2byte	0x4d2
 1235 03ff B6030000 		.4byte	0x3b6
 1236 0403 00       		.byte	0
 1237 0404 0E       		.uleb128 0xe
 1238 0405 2C080000 		.4byte	.LASF138
 1239 0409 03       		.byte	0x3
 1240 040a D404     		.2byte	0x4d4
 1241 040c E2030000 		.4byte	0x3e2
 1242 0410 01       		.byte	0x1
 1243 0411 00       		.byte	0
 1244 0412 04       		.uleb128 0x4
 1245 0413 A4220000 		.4byte	.LASF139
 1246 0417 03       		.byte	0x3
 1247 0418 D504     		.2byte	0x4d5
 1248 041a EE030000 		.4byte	0x3ee
 1249 041e 0A       		.uleb128 0xa
 1250 041f 01       		.byte	0x1
 1251 0420 2C000000 		.4byte	0x2c
 1252 0424 03       		.byte	0x3
 1253 0425 FF04     		.2byte	0x4ff
 1254 0427 38040000 		.4byte	0x438
 1255 042b 0B       		.uleb128 0xb
 1256 042c 0E1B0000 		.4byte	.LASF140
 1257 0430 00       		.byte	0
 1258 0431 0B       		.uleb128 0xb
 1259 0432 65110000 		.4byte	.LASF141
 1260 0436 01       		.byte	0x1
 1261 0437 00       		.byte	0
 1262 0438 04       		.uleb128 0x4
 1263 0439 F7220000 		.4byte	.LASF142
 1264 043d 03       		.byte	0x3
 1265 043e 0605     		.2byte	0x506
 1266 0440 1E040000 		.4byte	0x41e
 1267 0444 0D       		.uleb128 0xd
 1268 0445 08       		.byte	0x8
 1269 0446 03       		.byte	0x3
 1270 0447 0905     		.2byte	0x509
 1271 0449 75040000 		.4byte	0x475
 1272 044d 0E       		.uleb128 0xe
 1273 044e CD000000 		.4byte	.LASF143
 1274 0452 03       		.byte	0x3
 1275 0453 0C05     		.2byte	0x50c
 1276 0455 38040000 		.4byte	0x438
 1277 0459 00       		.byte	0
 1278 045a 0E       		.uleb128 0xe
 1279 045b 4D100000 		.4byte	.LASF144
 1280 045f 03       		.byte	0x3
 1281 0460 1105     		.2byte	0x511
 1282 0462 6B000000 		.4byte	0x6b
 1283 0466 01       		.byte	0x1
 1284 0467 0E       		.uleb128 0xe
 1285 0468 D50A0000 		.4byte	.LASF145
 1286 046c 03       		.byte	0x3
 1287 046d 1905     		.2byte	0x519
 1288 046f B7000000 		.4byte	0xb7
 1289 0473 04       		.byte	0x4
 1290 0474 00       		.byte	0
ARM GAS  C:\Users\owono\AppData\Local\Temp\ccFLv7mf.s 			page 62


 1291 0475 04       		.uleb128 0x4
 1292 0476 47140000 		.4byte	.LASF146
 1293 047a 03       		.byte	0x3
 1294 047b 1B05     		.2byte	0x51b
 1295 047d 44040000 		.4byte	0x444
 1296 0481 0D       		.uleb128 0xd
 1297 0482 07       		.byte	0x7
 1298 0483 03       		.byte	0x3
 1299 0484 3F05     		.2byte	0x53f
 1300 0486 A5040000 		.4byte	0x4a5
 1301 048a 0E       		.uleb128 0xe
 1302 048b B7200000 		.4byte	.LASF147
 1303 048f 03       		.byte	0x3
 1304 0490 4205     		.2byte	0x542
 1305 0492 A5040000 		.4byte	0x4a5
 1306 0496 00       		.byte	0
 1307 0497 0E       		.uleb128 0xe
 1308 0498 B0030000 		.4byte	.LASF148
 1309 049c 03       		.byte	0x3
 1310 049d 4405     		.2byte	0x544
 1311 049f 6B000000 		.4byte	0x6b
 1312 04a3 06       		.byte	0x6
 1313 04a4 00       		.byte	0
 1314 04a5 0F       		.uleb128 0xf
 1315 04a6 6B000000 		.4byte	0x6b
 1316 04aa B5040000 		.4byte	0x4b5
 1317 04ae 10       		.uleb128 0x10
 1318 04af B0000000 		.4byte	0xb0
 1319 04b3 05       		.byte	0x5
 1320 04b4 00       		.byte	0
 1321 04b5 04       		.uleb128 0x4
 1322 04b6 B81C0000 		.4byte	.LASF149
 1323 04ba 03       		.byte	0x3
 1324 04bb 4505     		.2byte	0x545
 1325 04bd 81040000 		.4byte	0x481
 1326 04c1 07       		.uleb128 0x7
 1327 04c2 04       		.byte	0x4
 1328 04c3 6B000000 		.4byte	0x6b
 1329 04c7 11       		.uleb128 0x11
 1330 04c8 01       		.byte	0x1
 1331 04c9 2C000000 		.4byte	0x2c
 1332 04cd 04       		.byte	0x4
 1333 04ce 2F       		.byte	0x2f
 1334 04cf EC040000 		.4byte	0x4ec
 1335 04d3 0B       		.uleb128 0xb
 1336 04d4 E51C0000 		.4byte	.LASF150
 1337 04d8 01       		.byte	0x1
 1338 04d9 0B       		.uleb128 0xb
 1339 04da 791C0000 		.4byte	.LASF151
 1340 04de 02       		.byte	0x2
 1341 04df 0B       		.uleb128 0xb
 1342 04e0 1C240000 		.4byte	.LASF152
 1343 04e4 03       		.byte	0x3
 1344 04e5 0B       		.uleb128 0xb
 1345 04e6 3F1D0000 		.4byte	.LASF153
 1346 04ea 04       		.byte	0x4
 1347 04eb 00       		.byte	0
ARM GAS  C:\Users\owono\AppData\Local\Temp\ccFLv7mf.s 			page 63


 1348 04ec 12       		.uleb128 0x12
 1349 04ed B5030000 		.4byte	.LASF154
 1350 04f1 04       		.byte	0x4
 1351 04f2 3C       		.byte	0x3c
 1352 04f3 C7040000 		.4byte	0x4c7
 1353 04f7 0A       		.uleb128 0xa
 1354 04f8 01       		.byte	0x1
 1355 04f9 2C000000 		.4byte	0x2c
 1356 04fd 05       		.byte	0x5
 1357 04fe 0801     		.2byte	0x108
 1358 0500 23050000 		.4byte	0x523
 1359 0504 0B       		.uleb128 0xb
 1360 0505 BA060000 		.4byte	.LASF155
 1361 0509 00       		.byte	0
 1362 050a 0B       		.uleb128 0xb
 1363 050b D0060000 		.4byte	.LASF156
 1364 050f 01       		.byte	0x1
 1365 0510 0B       		.uleb128 0xb
 1366 0511 E6060000 		.4byte	.LASF157
 1367 0515 02       		.byte	0x2
 1368 0516 0B       		.uleb128 0xb
 1369 0517 FC060000 		.4byte	.LASF158
 1370 051b 03       		.byte	0x3
 1371 051c 0B       		.uleb128 0xb
 1372 051d 340D0000 		.4byte	.LASF159
 1373 0521 0F       		.byte	0xf
 1374 0522 00       		.byte	0
 1375 0523 0A       		.uleb128 0xa
 1376 0524 01       		.byte	0x1
 1377 0525 2C000000 		.4byte	0x2c
 1378 0529 05       		.byte	0x5
 1379 052a 2701     		.2byte	0x127
 1380 052c 4F050000 		.4byte	0x54f
 1381 0530 0B       		.uleb128 0xb
 1382 0531 ED040000 		.4byte	.LASF160
 1383 0535 00       		.byte	0
 1384 0536 0B       		.uleb128 0xb
 1385 0537 45220000 		.4byte	.LASF161
 1386 053b 01       		.byte	0x1
 1387 053c 0B       		.uleb128 0xb
 1388 053d B50B0000 		.4byte	.LASF162
 1389 0541 02       		.byte	0x2
 1390 0542 0B       		.uleb128 0xb
 1391 0543 28010000 		.4byte	.LASF163
 1392 0547 03       		.byte	0x3
 1393 0548 0B       		.uleb128 0xb
 1394 0549 5C1F0000 		.4byte	.LASF164
 1395 054d 04       		.byte	0x4
 1396 054e 00       		.byte	0
 1397 054f 0A       		.uleb128 0xa
 1398 0550 01       		.byte	0x1
 1399 0551 2C000000 		.4byte	0x2c
 1400 0555 05       		.byte	0x5
 1401 0556 3D01     		.2byte	0x13d
 1402 0558 C9050000 		.4byte	0x5c9
 1403 055c 0B       		.uleb128 0xb
 1404 055d 331A0000 		.4byte	.LASF165
ARM GAS  C:\Users\owono\AppData\Local\Temp\ccFLv7mf.s 			page 64


 1405 0561 00       		.byte	0
 1406 0562 0B       		.uleb128 0xb
 1407 0563 D7050000 		.4byte	.LASF166
 1408 0567 01       		.byte	0x1
 1409 0568 0B       		.uleb128 0xb
 1410 0569 AD1A0000 		.4byte	.LASF167
 1411 056d 02       		.byte	0x2
 1412 056e 0B       		.uleb128 0xb
 1413 056f A6110000 		.4byte	.LASF168
 1414 0573 03       		.byte	0x3
 1415 0574 0B       		.uleb128 0xb
 1416 0575 BD070000 		.4byte	.LASF169
 1417 0579 04       		.byte	0x4
 1418 057a 0B       		.uleb128 0xb
 1419 057b 141D0000 		.4byte	.LASF170
 1420 057f 05       		.byte	0x5
 1421 0580 0B       		.uleb128 0xb
 1422 0581 CA130000 		.4byte	.LASF171
 1423 0585 06       		.byte	0x6
 1424 0586 0B       		.uleb128 0xb
 1425 0587 7B110000 		.4byte	.LASF172
 1426 058b 07       		.byte	0x7
 1427 058c 0B       		.uleb128 0xb
 1428 058d 2C040000 		.4byte	.LASF173
 1429 0591 08       		.byte	0x8
 1430 0592 0B       		.uleb128 0xb
 1431 0593 E1120000 		.4byte	.LASF174
 1432 0597 09       		.byte	0x9
 1433 0598 0B       		.uleb128 0xb
 1434 0599 AD0A0000 		.4byte	.LASF175
 1435 059d 0A       		.byte	0xa
 1436 059e 0B       		.uleb128 0xb
 1437 059f 4D130000 		.4byte	.LASF176
 1438 05a3 0B       		.byte	0xb
 1439 05a4 0B       		.uleb128 0xb
 1440 05a5 16220000 		.4byte	.LASF177
 1441 05a9 0C       		.byte	0xc
 1442 05aa 0B       		.uleb128 0xb
 1443 05ab 500E0000 		.4byte	.LASF178
 1444 05af 0D       		.byte	0xd
 1445 05b0 0B       		.uleb128 0xb
 1446 05b1 B3090000 		.4byte	.LASF179
 1447 05b5 0E       		.byte	0xe
 1448 05b6 0B       		.uleb128 0xb
 1449 05b7 D5000000 		.4byte	.LASF180
 1450 05bb 0F       		.byte	0xf
 1451 05bc 0B       		.uleb128 0xb
 1452 05bd 00040000 		.4byte	.LASF181
 1453 05c1 15       		.byte	0x15
 1454 05c2 0B       		.uleb128 0xb
 1455 05c3 A20F0000 		.4byte	.LASF182
 1456 05c7 18       		.byte	0x18
 1457 05c8 00       		.byte	0
 1458 05c9 04       		.uleb128 0x4
 1459 05ca 51180000 		.4byte	.LASF183
 1460 05ce 05       		.byte	0x5
 1461 05cf 7D01     		.2byte	0x17d
ARM GAS  C:\Users\owono\AppData\Local\Temp\ccFLv7mf.s 			page 65


 1462 05d1 4F050000 		.4byte	0x54f
 1463 05d5 0D       		.uleb128 0xd
 1464 05d6 05       		.byte	0x5
 1465 05d7 05       		.byte	0x5
 1466 05d8 C601     		.2byte	0x1c6
 1467 05da 20060000 		.4byte	0x620
 1468 05de 0E       		.uleb128 0xe
 1469 05df 5E140000 		.4byte	.LASF184
 1470 05e3 05       		.byte	0x5
 1471 05e4 D001     		.2byte	0x1d0
 1472 05e6 6B000000 		.4byte	0x6b
 1473 05ea 00       		.byte	0
 1474 05eb 0E       		.uleb128 0xe
 1475 05ec 8F160000 		.4byte	.LASF185
 1476 05f0 05       		.byte	0x5
 1477 05f1 D601     		.2byte	0x1d6
 1478 05f3 6B000000 		.4byte	0x6b
 1479 05f7 01       		.byte	0x1
 1480 05f8 0E       		.uleb128 0xe
 1481 05f9 36000000 		.4byte	.LASF186
 1482 05fd 05       		.byte	0x5
 1483 05fe DD01     		.2byte	0x1dd
 1484 0600 6B000000 		.4byte	0x6b
 1485 0604 02       		.byte	0x2
 1486 0605 0E       		.uleb128 0xe
 1487 0606 C11E0000 		.4byte	.LASF187
 1488 060a 05       		.byte	0x5
 1489 060b E101     		.2byte	0x1e1
 1490 060d C9050000 		.4byte	0x5c9
 1491 0611 03       		.byte	0x3
 1492 0612 0E       		.uleb128 0xe
 1493 0613 F51D0000 		.4byte	.LASF188
 1494 0617 05       		.byte	0x5
 1495 0618 EB01     		.2byte	0x1eb
 1496 061a 6B000000 		.4byte	0x6b
 1497 061e 04       		.byte	0x4
 1498 061f 00       		.byte	0
 1499 0620 04       		.uleb128 0x4
 1500 0621 9F0B0000 		.4byte	.LASF189
 1501 0625 05       		.byte	0x5
 1502 0626 ED01     		.2byte	0x1ed
 1503 0628 D5050000 		.4byte	0x5d5
 1504 062c 0D       		.uleb128 0xd
 1505 062d 08       		.byte	0x8
 1506 062e 05       		.byte	0x5
 1507 062f 7203     		.2byte	0x372
 1508 0631 6A060000 		.4byte	0x66a
 1509 0635 0E       		.uleb128 0xe
 1510 0636 10110000 		.4byte	.LASF190
 1511 063a 05       		.byte	0x5
 1512 063b 7803     		.2byte	0x378
 1513 063d 6B000000 		.4byte	0x6b
 1514 0641 00       		.byte	0
 1515 0642 0E       		.uleb128 0xe
 1516 0643 37230000 		.4byte	.LASF191
 1517 0647 05       		.byte	0x5
 1518 0648 7E03     		.2byte	0x37e
ARM GAS  C:\Users\owono\AppData\Local\Temp\ccFLv7mf.s 			page 66


 1519 064a 77000000 		.4byte	0x77
 1520 064e 02       		.byte	0x2
 1521 064f 0E       		.uleb128 0xe
 1522 0650 0A220000 		.4byte	.LASF192
 1523 0654 05       		.byte	0x5
 1524 0655 8303     		.2byte	0x383
 1525 0657 77000000 		.4byte	0x77
 1526 065b 04       		.byte	0x4
 1527 065c 0E       		.uleb128 0xe
 1528 065d 0E240000 		.4byte	.LASF193
 1529 0661 05       		.byte	0x5
 1530 0662 8903     		.2byte	0x389
 1531 0664 77000000 		.4byte	0x77
 1532 0668 06       		.byte	0x6
 1533 0669 00       		.byte	0
 1534 066a 04       		.uleb128 0x4
 1535 066b 2B1B0000 		.4byte	.LASF194
 1536 066f 05       		.byte	0x5
 1537 0670 8B03     		.2byte	0x38b
 1538 0672 2C060000 		.4byte	0x62c
 1539 0676 11       		.uleb128 0x11
 1540 0677 01       		.byte	0x1
 1541 0678 2C000000 		.4byte	0x2c
 1542 067c 06       		.byte	0x6
 1543 067d 49       		.byte	0x49
 1544 067e 31070000 		.4byte	0x731
 1545 0682 0B       		.uleb128 0xb
 1546 0683 F10D0000 		.4byte	.LASF195
 1547 0687 01       		.byte	0x1
 1548 0688 0B       		.uleb128 0xb
 1549 0689 440C0000 		.4byte	.LASF196
 1550 068d 02       		.byte	0x2
 1551 068e 0B       		.uleb128 0xb
 1552 068f 57060000 		.4byte	.LASF197
 1553 0693 03       		.byte	0x3
 1554 0694 0B       		.uleb128 0xb
 1555 0695 F2080000 		.4byte	.LASF198
 1556 0699 04       		.byte	0x4
 1557 069a 0B       		.uleb128 0xb
 1558 069b 941A0000 		.4byte	.LASF199
 1559 069f 05       		.byte	0x5
 1560 06a0 0B       		.uleb128 0xb
 1561 06a1 C8190000 		.4byte	.LASF200
 1562 06a5 06       		.byte	0x6
 1563 06a6 0B       		.uleb128 0xb
 1564 06a7 12070000 		.4byte	.LASF201
 1565 06ab 07       		.byte	0x7
 1566 06ac 0B       		.uleb128 0xb
 1567 06ad 4E190000 		.4byte	.LASF202
 1568 06b1 08       		.byte	0x8
 1569 06b2 0B       		.uleb128 0xb
 1570 06b3 54040000 		.4byte	.LASF203
 1571 06b7 09       		.byte	0x9
 1572 06b8 0B       		.uleb128 0xb
 1573 06b9 FC100000 		.4byte	.LASF204
 1574 06bd 0A       		.byte	0xa
 1575 06be 0B       		.uleb128 0xb
ARM GAS  C:\Users\owono\AppData\Local\Temp\ccFLv7mf.s 			page 67


 1576 06bf FB200000 		.4byte	.LASF205
 1577 06c3 0B       		.byte	0xb
 1578 06c4 0B       		.uleb128 0xb
 1579 06c5 CC1C0000 		.4byte	.LASF206
 1580 06c9 0C       		.byte	0xc
 1581 06ca 0B       		.uleb128 0xb
 1582 06cb 64080000 		.4byte	.LASF207
 1583 06cf 0D       		.byte	0xd
 1584 06d0 0B       		.uleb128 0xb
 1585 06d1 FA180000 		.4byte	.LASF208
 1586 06d5 0E       		.byte	0xe
 1587 06d6 0B       		.uleb128 0xb
 1588 06d7 93030000 		.4byte	.LASF209
 1589 06db 0F       		.byte	0xf
 1590 06dc 0B       		.uleb128 0xb
 1591 06dd 9A230000 		.4byte	.LASF210
 1592 06e1 10       		.byte	0x10
 1593 06e2 0B       		.uleb128 0xb
 1594 06e3 6E100000 		.4byte	.LASF211
 1595 06e7 11       		.byte	0x11
 1596 06e8 0B       		.uleb128 0xb
 1597 06e9 A21E0000 		.4byte	.LASF212
 1598 06ed 12       		.byte	0x12
 1599 06ee 0B       		.uleb128 0xb
 1600 06ef 6B0B0000 		.4byte	.LASF213
 1601 06f3 13       		.byte	0x13
 1602 06f4 0B       		.uleb128 0xb
 1603 06f5 64010000 		.4byte	.LASF214
 1604 06f9 52       		.byte	0x52
 1605 06fa 0B       		.uleb128 0xb
 1606 06fb ED010000 		.4byte	.LASF215
 1607 06ff 16       		.byte	0x16
 1608 0700 0B       		.uleb128 0xb
 1609 0701 B8170000 		.4byte	.LASF216
 1610 0705 17       		.byte	0x17
 1611 0706 0B       		.uleb128 0xb
 1612 0707 87220000 		.4byte	.LASF217
 1613 070b 18       		.byte	0x18
 1614 070c 0B       		.uleb128 0xb
 1615 070d 4F0F0000 		.4byte	.LASF218
 1616 0711 19       		.byte	0x19
 1617 0712 0B       		.uleb128 0xb
 1618 0713 D6110000 		.4byte	.LASF219
 1619 0717 1B       		.byte	0x1b
 1620 0718 0B       		.uleb128 0xb
 1621 0719 480A0000 		.4byte	.LASF220
 1622 071d 1D       		.byte	0x1d
 1623 071e 0B       		.uleb128 0xb
 1624 071f 3F000000 		.4byte	.LASF221
 1625 0723 1E       		.byte	0x1e
 1626 0724 0B       		.uleb128 0xb
 1627 0725 EE0E0000 		.4byte	.LASF222
 1628 0729 D2       		.byte	0xd2
 1629 072a 0B       		.uleb128 0xb
 1630 072b 9F1B0000 		.4byte	.LASF223
 1631 072f FF       		.byte	0xff
 1632 0730 00       		.byte	0
ARM GAS  C:\Users\owono\AppData\Local\Temp\ccFLv7mf.s 			page 68


 1633 0731 11       		.uleb128 0x11
 1634 0732 01       		.byte	0x1
 1635 0733 2C000000 		.4byte	0x2c
 1636 0737 06       		.byte	0x6
 1637 0738 A5       		.byte	0xa5
 1638 0739 28080000 		.4byte	0x828
 1639 073d 0B       		.uleb128 0xb
 1640 073e 1F1C0000 		.4byte	.LASF224
 1641 0742 00       		.byte	0
 1642 0743 0B       		.uleb128 0xb
 1643 0744 6F1B0000 		.4byte	.LASF225
 1644 0748 01       		.byte	0x1
 1645 0749 0B       		.uleb128 0xb
 1646 074a A6010000 		.4byte	.LASF226
 1647 074e 02       		.byte	0x2
 1648 074f 0B       		.uleb128 0xb
 1649 0750 14230000 		.4byte	.LASF227
 1650 0754 03       		.byte	0x3
 1651 0755 0B       		.uleb128 0xb
 1652 0756 A2070000 		.4byte	.LASF228
 1653 075a 04       		.byte	0x4
 1654 075b 0B       		.uleb128 0xb
 1655 075c E1160000 		.4byte	.LASF229
 1656 0760 05       		.byte	0x5
 1657 0761 0B       		.uleb128 0xb
 1658 0762 1D1F0000 		.4byte	.LASF230
 1659 0766 06       		.byte	0x6
 1660 0767 0B       		.uleb128 0xb
 1661 0768 30190000 		.4byte	.LASF231
 1662 076c 07       		.byte	0x7
 1663 076d 0B       		.uleb128 0xb
 1664 076e 5A160000 		.4byte	.LASF232
 1665 0772 08       		.byte	0x8
 1666 0773 0B       		.uleb128 0xb
 1667 0774 67140000 		.4byte	.LASF233
 1668 0778 09       		.byte	0x9
 1669 0779 0B       		.uleb128 0xb
 1670 077a E6170000 		.4byte	.LASF234
 1671 077e 0A       		.byte	0xa
 1672 077f 0B       		.uleb128 0xb
 1673 0780 120D0000 		.4byte	.LASF235
 1674 0784 0B       		.byte	0xb
 1675 0785 0B       		.uleb128 0xb
 1676 0786 19150000 		.4byte	.LASF236
 1677 078a 0C       		.byte	0xc
 1678 078b 0B       		.uleb128 0xb
 1679 078c 7D080000 		.4byte	.LASF237
 1680 0790 0D       		.byte	0xd
 1681 0791 0B       		.uleb128 0xb
 1682 0792 050C0000 		.4byte	.LASF238
 1683 0796 0E       		.byte	0xe
 1684 0797 0B       		.uleb128 0xb
 1685 0798 53230000 		.4byte	.LASF239
 1686 079c 0F       		.byte	0xf
 1687 079d 0B       		.uleb128 0xb
 1688 079e 0A020000 		.4byte	.LASF240
 1689 07a2 10       		.byte	0x10
ARM GAS  C:\Users\owono\AppData\Local\Temp\ccFLv7mf.s 			page 69


 1690 07a3 0B       		.uleb128 0xb
 1691 07a4 C8010000 		.4byte	.LASF241
 1692 07a8 11       		.byte	0x11
 1693 07a9 0B       		.uleb128 0xb
 1694 07aa CC030000 		.4byte	.LASF242
 1695 07ae 80       		.byte	0x80
 1696 07af 0B       		.uleb128 0xb
 1697 07b0 DC0C0000 		.4byte	.LASF243
 1698 07b4 80       		.byte	0x80
 1699 07b5 0B       		.uleb128 0xb
 1700 07b6 E90F0000 		.4byte	.LASF244
 1701 07ba 80       		.byte	0x80
 1702 07bb 0B       		.uleb128 0xb
 1703 07bc E61E0000 		.4byte	.LASF245
 1704 07c0 80       		.byte	0x80
 1705 07c1 0B       		.uleb128 0xb
 1706 07c2 8B1C0000 		.4byte	.LASF246
 1707 07c6 80       		.byte	0x80
 1708 07c7 0B       		.uleb128 0xb
 1709 07c8 5B170000 		.4byte	.LASF247
 1710 07cc 80       		.byte	0x80
 1711 07cd 0B       		.uleb128 0xb
 1712 07ce AE100000 		.4byte	.LASF248
 1713 07d2 80       		.byte	0x80
 1714 07d3 0B       		.uleb128 0xb
 1715 07d4 EA0B0000 		.4byte	.LASF249
 1716 07d8 80       		.byte	0x80
 1717 07d9 0B       		.uleb128 0xb
 1718 07da 0A0F0000 		.4byte	.LASF250
 1719 07de 81       		.byte	0x81
 1720 07df 0B       		.uleb128 0xb
 1721 07e0 A71D0000 		.4byte	.LASF251
 1722 07e4 81       		.byte	0x81
 1723 07e5 0B       		.uleb128 0xb
 1724 07e6 12000000 		.4byte	.LASF252
 1725 07ea 81       		.byte	0x81
 1726 07eb 0B       		.uleb128 0xb
 1727 07ec 7E070000 		.4byte	.LASF253
 1728 07f0 81       		.byte	0x81
 1729 07f1 0B       		.uleb128 0xb
 1730 07f2 B1050000 		.4byte	.LASF254
 1731 07f6 82       		.byte	0x82
 1732 07f7 0B       		.uleb128 0xb
 1733 07f8 BE200000 		.4byte	.LASF255
 1734 07fc A0       		.byte	0xa0
 1735 07fd 0B       		.uleb128 0xb
 1736 07fe 1B120000 		.4byte	.LASF256
 1737 0802 A0       		.byte	0xa0
 1738 0803 0B       		.uleb128 0xb
 1739 0804 01060000 		.4byte	.LASF257
 1740 0808 A1       		.byte	0xa1
 1741 0809 0B       		.uleb128 0xb
 1742 080a 0C200000 		.4byte	.LASF258
 1743 080e A2       		.byte	0xa2
 1744 080f 0B       		.uleb128 0xb
 1745 0810 B30D0000 		.4byte	.LASF259
 1746 0814 A3       		.byte	0xa3
ARM GAS  C:\Users\owono\AppData\Local\Temp\ccFLv7mf.s 			page 70


 1747 0815 0B       		.uleb128 0xb
 1748 0816 62090000 		.4byte	.LASF260
 1749 081a FD       		.byte	0xfd
 1750 081b 0B       		.uleb128 0xb
 1751 081c 6C150000 		.4byte	.LASF261
 1752 0820 FE       		.byte	0xfe
 1753 0821 0B       		.uleb128 0xb
 1754 0822 88190000 		.4byte	.LASF262
 1755 0826 FF       		.byte	0xff
 1756 0827 00       		.byte	0
 1757 0828 04       		.uleb128 0x4
 1758 0829 EC1F0000 		.4byte	.LASF263
 1759 082d 06       		.byte	0x6
 1760 082e 5F01     		.2byte	0x15f
 1761 0830 31070000 		.4byte	0x731
 1762 0834 04       		.uleb128 0x4
 1763 0835 D41B0000 		.4byte	.LASF264
 1764 0839 06       		.byte	0x6
 1765 083a 8901     		.2byte	0x189
 1766 083c 77000000 		.4byte	0x77
 1767 0840 0D       		.uleb128 0xd
 1768 0841 02       		.byte	0x2
 1769 0842 06       		.byte	0x6
 1770 0843 9301     		.2byte	0x193
 1771 0845 64080000 		.4byte	0x864
 1772 0849 0E       		.uleb128 0xe
 1773 084a A8050000 		.4byte	.LASF265
 1774 084e 06       		.byte	0x6
 1775 084f 9A01     		.2byte	0x19a
 1776 0851 6B000000 		.4byte	0x6b
 1777 0855 00       		.byte	0
 1778 0856 0E       		.uleb128 0xe
 1779 0857 B7230000 		.4byte	.LASF266
 1780 085b 06       		.byte	0x6
 1781 085c A001     		.2byte	0x1a0
 1782 085e 6B000000 		.4byte	0x6b
 1783 0862 01       		.byte	0x1
 1784 0863 00       		.byte	0
 1785 0864 04       		.uleb128 0x4
 1786 0865 B9040000 		.4byte	.LASF267
 1787 0869 06       		.byte	0x6
 1788 086a A201     		.2byte	0x1a2
 1789 086c 40080000 		.4byte	0x840
 1790 0870 0D       		.uleb128 0xd
 1791 0871 08       		.byte	0x8
 1792 0872 06       		.byte	0x6
 1793 0873 BE01     		.2byte	0x1be
 1794 0875 A1080000 		.4byte	0x8a1
 1795 0879 13       		.uleb128 0x13
 1796 087a 76616C00 		.ascii	"val\000"
 1797 087e 06       		.byte	0x6
 1798 087f C101     		.2byte	0x1c1
 1799 0881 C1040000 		.4byte	0x4c1
 1800 0885 00       		.byte	0
 1801 0886 13       		.uleb128 0x13
 1802 0887 6C656E00 		.ascii	"len\000"
 1803 088b 06       		.byte	0x6
ARM GAS  C:\Users\owono\AppData\Local\Temp\ccFLv7mf.s 			page 71


 1804 088c C401     		.2byte	0x1c4
 1805 088e 77000000 		.4byte	0x77
 1806 0892 04       		.byte	0x4
 1807 0893 0E       		.uleb128 0xe
 1808 0894 90230000 		.4byte	.LASF268
 1809 0898 06       		.byte	0x6
 1810 0899 CB01     		.2byte	0x1cb
 1811 089b 77000000 		.4byte	0x77
 1812 089f 06       		.byte	0x6
 1813 08a0 00       		.byte	0
 1814 08a1 04       		.uleb128 0x4
 1815 08a2 EB020000 		.4byte	.LASF269
 1816 08a6 06       		.byte	0x6
 1817 08a7 CD01     		.2byte	0x1cd
 1818 08a9 70080000 		.4byte	0x870
 1819 08ad 0D       		.uleb128 0xd
 1820 08ae 0C       		.byte	0xc
 1821 08af 06       		.byte	0x6
 1822 08b0 D001     		.2byte	0x1d0
 1823 08b2 D1080000 		.4byte	0x8d1
 1824 08b6 0E       		.uleb128 0xe
 1825 08b7 331C0000 		.4byte	.LASF270
 1826 08bb 06       		.byte	0x6
 1827 08bc D301     		.2byte	0x1d3
 1828 08be A1080000 		.4byte	0x8a1
 1829 08c2 00       		.byte	0
 1830 08c3 0E       		.uleb128 0xe
 1831 08c4 84160000 		.4byte	.LASF271
 1832 08c8 06       		.byte	0x6
 1833 08c9 D601     		.2byte	0x1d6
 1834 08cb 34080000 		.4byte	0x834
 1835 08cf 08       		.byte	0x8
 1836 08d0 00       		.byte	0
 1837 08d1 04       		.uleb128 0x4
 1838 08d2 0D080000 		.4byte	.LASF272
 1839 08d6 06       		.byte	0x6
 1840 08d7 D801     		.2byte	0x1d8
 1841 08d9 AD080000 		.4byte	0x8ad
 1842 08dd 0D       		.uleb128 0xd
 1843 08de 04       		.byte	0x4
 1844 08df 06       		.byte	0x6
 1845 08e0 E601     		.2byte	0x1e6
 1846 08e2 01090000 		.4byte	0x901
 1847 08e6 0E       		.uleb128 0xe
 1848 08e7 091D0000 		.4byte	.LASF273
 1849 08eb 06       		.byte	0x6
 1850 08ec E901     		.2byte	0x1e9
 1851 08ee 64080000 		.4byte	0x864
 1852 08f2 00       		.byte	0
 1853 08f3 13       		.uleb128 0x13
 1854 08f4 6D747500 		.ascii	"mtu\000"
 1855 08f8 06       		.byte	0x6
 1856 08f9 EC01     		.2byte	0x1ec
 1857 08fb 77000000 		.4byte	0x77
 1858 08ff 02       		.byte	0x2
 1859 0900 00       		.byte	0
 1860 0901 04       		.uleb128 0x4
ARM GAS  C:\Users\owono\AppData\Local\Temp\ccFLv7mf.s 			page 72


 1861 0902 0C170000 		.4byte	.LASF274
 1862 0906 06       		.byte	0x6
 1863 0907 EE01     		.2byte	0x1ee
 1864 0909 DD080000 		.4byte	0x8dd
 1865 090d 0D       		.uleb128 0xd
 1866 090e 08       		.byte	0x8
 1867 090f 06       		.byte	0x6
 1868 0910 FC01     		.2byte	0x1fc
 1869 0912 3E090000 		.4byte	0x93e
 1870 0916 0E       		.uleb128 0xe
 1871 0917 6A1A0000 		.4byte	.LASF275
 1872 091b 06       		.byte	0x6
 1873 091c 0102     		.2byte	0x201
 1874 091e C1040000 		.4byte	0x4c1
 1875 0922 00       		.byte	0
 1876 0923 0E       		.uleb128 0xe
 1877 0924 391C0000 		.4byte	.LASF276
 1878 0928 06       		.byte	0x6
 1879 0929 0602     		.2byte	0x206
 1880 092b 77000000 		.4byte	0x77
 1881 092f 04       		.byte	0x4
 1882 0930 0E       		.uleb128 0xe
 1883 0931 A50E0000 		.4byte	.LASF277
 1884 0935 06       		.byte	0x6
 1885 0936 0D02     		.2byte	0x20d
 1886 0938 77000000 		.4byte	0x77
 1887 093c 06       		.byte	0x6
 1888 093d 00       		.byte	0
 1889 093e 04       		.uleb128 0x4
 1890 093f 3F120000 		.4byte	.LASF278
 1891 0943 06       		.byte	0x6
 1892 0944 0F02     		.2byte	0x20f
 1893 0946 0D090000 		.4byte	0x90d
 1894 094a 14       		.uleb128 0x14
 1895 094b 04       		.byte	0x4
 1896 094c 07       		.byte	0x7
 1897 094d 3A       		.byte	0x3a
 1898 094e 77090000 		.4byte	0x977
 1899 0952 15       		.uleb128 0x15
 1900 0953 84160000 		.4byte	.LASF271
 1901 0957 07       		.byte	0x7
 1902 0958 3D       		.byte	0x3d
 1903 0959 34080000 		.4byte	0x834
 1904 095d 00       		.byte	0
 1905 095e 15       		.uleb128 0x15
 1906 095f 53160000 		.4byte	.LASF279
 1907 0963 07       		.byte	0x7
 1908 0964 43       		.byte	0x43
 1909 0965 6B000000 		.4byte	0x6b
 1910 0969 02       		.byte	0x2
 1911 096a 15       		.uleb128 0x15
 1912 096b A30A0000 		.4byte	.LASF280
 1913 096f 07       		.byte	0x7
 1914 0970 46       		.byte	0x46
 1915 0971 28080000 		.4byte	0x828
 1916 0975 03       		.byte	0x3
 1917 0976 00       		.byte	0
ARM GAS  C:\Users\owono\AppData\Local\Temp\ccFLv7mf.s 			page 73


 1918 0977 12       		.uleb128 0x12
 1919 0978 040A0000 		.4byte	.LASF281
 1920 097c 07       		.byte	0x7
 1921 097d 48       		.byte	0x48
 1922 097e 4A090000 		.4byte	0x94a
 1923 0982 14       		.uleb128 0x14
 1924 0983 10       		.byte	0x10
 1925 0984 07       		.byte	0x7
 1926 0985 8A       		.byte	0x8a
 1927 0986 A3090000 		.4byte	0x9a3
 1928 098a 15       		.uleb128 0x15
 1929 098b 091D0000 		.4byte	.LASF273
 1930 098f 07       		.byte	0x7
 1931 0990 8D       		.byte	0x8d
 1932 0991 64080000 		.4byte	0x864
 1933 0995 00       		.byte	0
 1934 0996 15       		.uleb128 0x15
 1935 0997 FB1C0000 		.4byte	.LASF282
 1936 099b 07       		.byte	0x7
 1937 099c 90       		.byte	0x90
 1938 099d D1080000 		.4byte	0x8d1
 1939 09a1 04       		.byte	0x4
 1940 09a2 00       		.byte	0
 1941 09a3 12       		.uleb128 0x12
 1942 09a4 97160000 		.4byte	.LASF283
 1943 09a8 07       		.byte	0x7
 1944 09a9 92       		.byte	0x92
 1945 09aa 82090000 		.4byte	0x982
 1946 09ae 04       		.uleb128 0x4
 1947 09af 70040000 		.4byte	.LASF284
 1948 09b3 08       		.byte	0x8
 1949 09b4 0302     		.2byte	0x203
 1950 09b6 B9000000 		.4byte	0xb9
 1951 09ba 16       		.uleb128 0x16
 1952 09bb 8F02     		.2byte	0x28f
 1953 09bd 09       		.byte	0x9
 1954 09be 9C       		.byte	0x9c
 1955 09bf F7090000 		.4byte	0x9f7
 1956 09c3 15       		.uleb128 0x15
 1957 09c4 DB0F0000 		.4byte	.LASF285
 1958 09c8 09       		.byte	0x9
 1959 09c9 9F       		.byte	0x9f
 1960 09ca F7090000 		.4byte	0x9f7
 1961 09ce 00       		.byte	0
 1962 09cf 17       		.uleb128 0x17
 1963 09d0 D50E0000 		.4byte	.LASF286
 1964 09d4 09       		.byte	0x9
 1965 09d5 A2       		.byte	0xa2
 1966 09d6 080A0000 		.4byte	0xa08
 1967 09da 7902     		.2byte	0x279
 1968 09dc 17       		.uleb128 0x17
 1969 09dd 02200000 		.4byte	.LASF287
 1970 09e1 09       		.byte	0x9
 1971 09e2 A5       		.byte	0xa5
 1972 09e3 6B000000 		.4byte	0x6b
 1973 09e7 8D02     		.2byte	0x28d
 1974 09e9 17       		.uleb128 0x17
ARM GAS  C:\Users\owono\AppData\Local\Temp\ccFLv7mf.s 			page 74


 1975 09ea 400E0000 		.4byte	.LASF288
 1976 09ee 09       		.byte	0x9
 1977 09ef A8       		.byte	0xa8
 1978 09f0 6B000000 		.4byte	0x6b
 1979 09f4 8E02     		.2byte	0x28e
 1980 09f6 00       		.byte	0
 1981 09f7 0F       		.uleb128 0xf
 1982 09f8 6B000000 		.4byte	0x6b
 1983 09fc 080A0000 		.4byte	0xa08
 1984 0a00 18       		.uleb128 0x18
 1985 0a01 B0000000 		.4byte	0xb0
 1986 0a05 7802     		.2byte	0x278
 1987 0a07 00       		.byte	0
 1988 0a08 0F       		.uleb128 0xf
 1989 0a09 6B000000 		.4byte	0x6b
 1990 0a0d 1E0A0000 		.4byte	0xa1e
 1991 0a11 10       		.uleb128 0x10
 1992 0a12 B0000000 		.4byte	0xb0
 1993 0a16 04       		.byte	0x4
 1994 0a17 10       		.uleb128 0x10
 1995 0a18 B0000000 		.4byte	0xb0
 1996 0a1c 03       		.byte	0x3
 1997 0a1d 00       		.byte	0
 1998 0a1e 12       		.uleb128 0x12
 1999 0a1f 8B130000 		.4byte	.LASF289
 2000 0a23 09       		.byte	0x9
 2001 0a24 A9       		.byte	0xa9
 2002 0a25 BA090000 		.4byte	0x9ba
 2003 0a29 0A       		.uleb128 0xa
 2004 0a2a 01       		.byte	0x1
 2005 0a2b 2C000000 		.4byte	0x2c
 2006 0a2f 0A       		.byte	0xa
 2007 0a30 5008     		.2byte	0x850
 2008 0a32 550A0000 		.4byte	0xa55
 2009 0a36 0B       		.uleb128 0xb
 2010 0a37 F0090000 		.4byte	.LASF290
 2011 0a3b 00       		.byte	0
 2012 0a3c 0B       		.uleb128 0xb
 2013 0a3d BA120000 		.4byte	.LASF291
 2014 0a41 01       		.byte	0x1
 2015 0a42 0B       		.uleb128 0xb
 2016 0a43 7A230000 		.4byte	.LASF292
 2017 0a47 02       		.byte	0x2
 2018 0a48 0B       		.uleb128 0xb
 2019 0a49 53050000 		.4byte	.LASF293
 2020 0a4d 03       		.byte	0x3
 2021 0a4e 0B       		.uleb128 0xb
 2022 0a4f 211E0000 		.4byte	.LASF294
 2023 0a53 04       		.byte	0x4
 2024 0a54 00       		.byte	0
 2025 0a55 04       		.uleb128 0x4
 2026 0a56 7D1F0000 		.4byte	.LASF295
 2027 0a5a 0A       		.byte	0xa
 2028 0a5b 5E08     		.2byte	0x85e
 2029 0a5d 290A0000 		.4byte	0xa29
 2030 0a61 0D       		.uleb128 0xd
 2031 0a62 0C       		.byte	0xc
ARM GAS  C:\Users\owono\AppData\Local\Temp\ccFLv7mf.s 			page 75


 2032 0a63 0A       		.byte	0xa
 2033 0a64 9909     		.2byte	0x999
 2034 0a66 B90A0000 		.4byte	0xab9
 2035 0a6a 0E       		.uleb128 0xe
 2036 0a6b 80010000 		.4byte	.LASF296
 2037 0a6f 0A       		.byte	0xa
 2038 0a70 9C09     		.2byte	0x99c
 2039 0a72 34080000 		.4byte	0x834
 2040 0a76 00       		.byte	0
 2041 0a77 0E       		.uleb128 0xe
 2042 0a78 57150000 		.4byte	.LASF297
 2043 0a7c 0A       		.byte	0xa
 2044 0a7d 9E09     		.2byte	0x99e
 2045 0a7f 34080000 		.4byte	0x834
 2046 0a83 02       		.byte	0x2
 2047 0a84 0E       		.uleb128 0xe
 2048 0a85 1E1A0000 		.4byte	.LASF298
 2049 0a89 0A       		.byte	0xa
 2050 0a8a A009     		.2byte	0x9a0
 2051 0a8c 34080000 		.4byte	0x834
 2052 0a90 04       		.byte	0x4
 2053 0a91 0E       		.uleb128 0xe
 2054 0a92 8A180000 		.4byte	.LASF299
 2055 0a96 0A       		.byte	0xa
 2056 0a97 A309     		.2byte	0x9a3
 2057 0a99 34080000 		.4byte	0x834
 2058 0a9d 06       		.byte	0x6
 2059 0a9e 0E       		.uleb128 0xe
 2060 0a9f 97200000 		.4byte	.LASF300
 2061 0aa3 0A       		.byte	0xa
 2062 0aa4 A509     		.2byte	0x9a5
 2063 0aa6 34080000 		.4byte	0x834
 2064 0aaa 08       		.byte	0x8
 2065 0aab 0E       		.uleb128 0xe
 2066 0aac 52080000 		.4byte	.LASF301
 2067 0ab0 0A       		.byte	0xa
 2068 0ab1 A709     		.2byte	0x9a7
 2069 0ab3 34080000 		.4byte	0x834
 2070 0ab7 0A       		.byte	0xa
 2071 0ab8 00       		.byte	0
 2072 0ab9 04       		.uleb128 0x4
 2073 0aba AB1C0000 		.4byte	.LASF302
 2074 0abe 0A       		.byte	0xa
 2075 0abf A809     		.2byte	0x9a8
 2076 0ac1 610A0000 		.4byte	0xa61
 2077 0ac5 19       		.uleb128 0x19
 2078 0ac6 26140000 		.4byte	.LASF345
 2079 0aca 01       		.byte	0x1
 2080 0acb 3805     		.2byte	0x538
 2081 0acd 00000000 		.4byte	.LFB4
 2082 0ad1 10000000 		.4byte	.LFE4-.LFB4
 2083 0ad5 01       		.uleb128 0x1
 2084 0ad6 9C       		.byte	0x9c
 2085 0ad7 1A       		.uleb128 0x1a
 2086 0ad8 B7000000 		.4byte	.LASF346
 2087 0adc 01       		.byte	0x1
 2088 0add F9       		.byte	0xf9
ARM GAS  C:\Users\owono\AppData\Local\Temp\ccFLv7mf.s 			page 76


 2089 0ade 00000000 		.4byte	.LFB2
 2090 0ae2 38000000 		.4byte	.LFE2-.LFB2
 2091 0ae6 01       		.uleb128 0x1
 2092 0ae7 9C       		.byte	0x9c
 2093 0ae8 550B0000 		.4byte	0xb55
 2094 0aec 1B       		.uleb128 0x1b
 2095 0aed FE000000 		.4byte	.LASF305
 2096 0af1 01       		.byte	0x1
 2097 0af2 F9       		.byte	0xf9
 2098 0af3 550B0000 		.4byte	0xb55
 2099 0af7 00000000 		.4byte	.LLST0
 2100 0afb 1C       		.uleb128 0x1c
 2101 0afc 0C230000 		.4byte	.LASF303
 2102 0b00 01       		.byte	0x1
 2103 0b01 FB       		.byte	0xfb
 2104 0b02 28080000 		.4byte	0x828
 2105 0b06 2C000000 		.4byte	.LLST1
 2106 0b0a 1D       		.uleb128 0x1d
 2107 0b0b 16000000 		.4byte	.LBB2
 2108 0b0f 12000000 		.4byte	.LBE2-.LBB2
 2109 0b13 370B0000 		.4byte	0xb37
 2110 0b17 1E       		.uleb128 0x1e
 2111 0b18 89170000 		.4byte	.LASF304
 2112 0b1c 01       		.byte	0x1
 2113 0b1d B501     		.2byte	0x1b5
 2114 0b1f 77090000 		.4byte	0x977
 2115 0b23 02       		.uleb128 0x2
 2116 0b24 91       		.byte	0x91
 2117 0b25 74       		.sleb128 -12
 2118 0b26 1F       		.uleb128 0x1f
 2119 0b27 28000000 		.4byte	.LVL3
 2120 0b2b 450F0000 		.4byte	0xf45
 2121 0b2f 20       		.uleb128 0x20
 2122 0b30 01       		.uleb128 0x1
 2123 0b31 51       		.byte	0x51
 2124 0b32 02       		.uleb128 0x2
 2125 0b33 91       		.byte	0x91
 2126 0b34 74       		.sleb128 -12
 2127 0b35 00       		.byte	0
 2128 0b36 00       		.byte	0
 2129 0b37 21       		.uleb128 0x21
 2130 0b38 0A000000 		.4byte	.LVL1
 2131 0b3c 510F0000 		.4byte	0xf51
 2132 0b40 4B0B0000 		.4byte	0xb4b
 2133 0b44 20       		.uleb128 0x20
 2134 0b45 01       		.uleb128 0x1
 2135 0b46 50       		.byte	0x50
 2136 0b47 02       		.uleb128 0x2
 2137 0b48 74       		.byte	0x74
 2138 0b49 00       		.sleb128 0
 2139 0b4a 00       		.byte	0
 2140 0b4b 22       		.uleb128 0x22
 2141 0b4c 30000000 		.4byte	.LVL6
 2142 0b50 5C0F0000 		.4byte	0xf5c
 2143 0b54 00       		.byte	0
 2144 0b55 07       		.uleb128 0x7
 2145 0b56 04       		.byte	0x4
ARM GAS  C:\Users\owono\AppData\Local\Temp\ccFLv7mf.s 			page 77


 2146 0b57 A3090000 		.4byte	0x9a3
 2147 0b5b 23       		.uleb128 0x23
 2148 0b5c 36180000 		.4byte	.LASF347
 2149 0b60 01       		.byte	0x1
 2150 0b61 D405     		.2byte	0x5d4
 2151 0b63 6B000000 		.4byte	0x6b
 2152 0b67 00000000 		.4byte	.LFB7
 2153 0b6b 24000000 		.4byte	.LFE7-.LFB7
 2154 0b6f 01       		.uleb128 0x1
 2155 0b70 9C       		.byte	0x9c
 2156 0b71 A40B0000 		.4byte	0xba4
 2157 0b75 24       		.uleb128 0x24
 2158 0b76 980C0000 		.4byte	.LASF306
 2159 0b7a 01       		.byte	0x1
 2160 0b7b D405     		.2byte	0x5d4
 2161 0b7d A40B0000 		.4byte	0xba4
 2162 0b81 56000000 		.4byte	.LLST2
 2163 0b85 25       		.uleb128 0x25
 2164 0b86 6900     		.ascii	"i\000"
 2165 0b88 01       		.byte	0x1
 2166 0b89 D605     		.2byte	0x5d6
 2167 0b8b 6B000000 		.4byte	0x6b
 2168 0b8f A9000000 		.4byte	.LLST3
 2169 0b93 26       		.uleb128 0x26
 2170 0b94 46050000 		.4byte	.LASF307
 2171 0b98 01       		.byte	0x1
 2172 0b99 D705     		.2byte	0x5d7
 2173 0b9b 6B000000 		.4byte	0x6b
 2174 0b9f D2000000 		.4byte	.LLST4
 2175 0ba3 00       		.byte	0
 2176 0ba4 07       		.uleb128 0x7
 2177 0ba5 04       		.byte	0x4
 2178 0ba6 AA0B0000 		.4byte	0xbaa
 2179 0baa 27       		.uleb128 0x27
 2180 0bab B5040000 		.4byte	0x4b5
 2181 0baf 28       		.uleb128 0x28
 2182 0bb0 24090000 		.4byte	.LASF348
 2183 0bb4 01       		.byte	0x1
 2184 0bb5 2C06     		.2byte	0x62c
 2185 0bb7 00000000 		.4byte	.LFB10
 2186 0bbb B8020000 		.4byte	.LFE10-.LFB10
 2187 0bbf 01       		.uleb128 0x1
 2188 0bc0 9C       		.byte	0x9c
 2189 0bc1 2E0E0000 		.4byte	0xe2e
 2190 0bc5 24       		.uleb128 0x24
 2191 0bc6 CD210000 		.4byte	.LASF308
 2192 0bca 01       		.byte	0x1
 2193 0bcb 2C06     		.2byte	0x62c
 2194 0bcd 6B000000 		.4byte	0x6b
 2195 0bd1 F1000000 		.4byte	.LLST5
 2196 0bd5 24       		.uleb128 0x24
 2197 0bd6 FE000000 		.4byte	.LASF305
 2198 0bda 01       		.byte	0x1
 2199 0bdb 2C06     		.2byte	0x62c
 2200 0bdd B7000000 		.4byte	0xb7
 2201 0be1 A8010000 		.4byte	.LLST6
 2202 0be5 1D       		.uleb128 0x1d
ARM GAS  C:\Users\owono\AppData\Local\Temp\ccFLv7mf.s 			page 78


 2203 0be6 6C000000 		.4byte	.LBB3
 2204 0bea 20000000 		.4byte	.LBE3-.LBB3
 2205 0bee 330C0000 		.4byte	0xc33
 2206 0bf2 1E       		.uleb128 0x1e
 2207 0bf3 F01B0000 		.4byte	.LASF309
 2208 0bf7 01       		.byte	0x1
 2209 0bf8 3906     		.2byte	0x639
 2210 0bfa 12040000 		.4byte	0x412
 2211 0bfe 02       		.uleb128 0x2
 2212 0bff 91       		.byte	0x91
 2213 0c00 64       		.sleb128 -28
 2214 0c01 21       		.uleb128 0x21
 2215 0c02 7C000000 		.4byte	.LVL21
 2216 0c06 680F0000 		.4byte	0xf68
 2217 0c0a 150C0000 		.4byte	0xc15
 2218 0c0e 20       		.uleb128 0x20
 2219 0c0f 01       		.uleb128 0x1
 2220 0c10 50       		.byte	0x50
 2221 0c11 02       		.uleb128 0x2
 2222 0c12 76       		.byte	0x76
 2223 0c13 00       		.sleb128 0
 2224 0c14 00       		.byte	0
 2225 0c15 21       		.uleb128 0x21
 2226 0c16 88000000 		.4byte	.LVL22
 2227 0c1a 680F0000 		.4byte	0xf68
 2228 0c1e 290C0000 		.4byte	0xc29
 2229 0c22 20       		.uleb128 0x20
 2230 0c23 01       		.uleb128 0x1
 2231 0c24 50       		.byte	0x50
 2232 0c25 02       		.uleb128 0x2
 2233 0c26 76       		.byte	0x76
 2234 0c27 00       		.sleb128 0
 2235 0c28 00       		.byte	0
 2236 0c29 22       		.uleb128 0x22
 2237 0c2a 8C000000 		.4byte	.LVL23
 2238 0c2e 740F0000 		.4byte	0xf74
 2239 0c32 00       		.byte	0
 2240 0c33 1D       		.uleb128 0x1d
 2241 0c34 B4000000 		.4byte	.LBB4
 2242 0c38 40000000 		.4byte	.LBE4-.LBB4
 2243 0c3c 510C0000 		.4byte	0xc51
 2244 0c40 26       		.uleb128 0x26
 2245 0c41 0F210000 		.4byte	.LASF310
 2246 0c45 01       		.byte	0x1
 2247 0c46 6206     		.2byte	0x662
 2248 0c48 83000000 		.4byte	0x83
 2249 0c4c D4010000 		.4byte	.LLST7
 2250 0c50 00       		.byte	0
 2251 0c51 1D       		.uleb128 0x1d
 2252 0c52 10010000 		.4byte	.LBB5
 2253 0c56 0E000000 		.4byte	.LBE5-.LBB5
 2254 0c5a 7E0C0000 		.4byte	0xc7e
 2255 0c5e 1E       		.uleb128 0x1e
 2256 0c5f 3A1E0000 		.4byte	.LASF311
 2257 0c63 01       		.byte	0x1
 2258 0c64 7A06     		.2byte	0x67a
 2259 0c66 2E0E0000 		.4byte	0xe2e
ARM GAS  C:\Users\owono\AppData\Local\Temp\ccFLv7mf.s 			page 79


 2260 0c6a 02       		.uleb128 0x2
 2261 0c6b 91       		.byte	0x91
 2262 0c6c 64       		.sleb128 -28
 2263 0c6d 1F       		.uleb128 0x1f
 2264 0c6e 1E010000 		.4byte	.LVL34
 2265 0c72 800F0000 		.4byte	0xf80
 2266 0c76 20       		.uleb128 0x20
 2267 0c77 01       		.uleb128 0x1
 2268 0c78 50       		.byte	0x50
 2269 0c79 02       		.uleb128 0x2
 2270 0c7a 91       		.byte	0x91
 2271 0c7b 64       		.sleb128 -28
 2272 0c7c 00       		.byte	0
 2273 0c7d 00       		.byte	0
 2274 0c7e 1D       		.uleb128 0x1d
 2275 0c7f 2E010000 		.4byte	.LBB6
 2276 0c83 28000000 		.4byte	.LBE6-.LBB6
 2277 0c87 B80C0000 		.4byte	0xcb8
 2278 0c8b 26       		.uleb128 0x26
 2279 0c8c 8C030000 		.4byte	.LASF312
 2280 0c90 01       		.byte	0x1
 2281 0c91 9206     		.2byte	0x692
 2282 0c93 3E0E0000 		.4byte	0xe3e
 2283 0c97 E7010000 		.4byte	.LLST8
 2284 0c9b 29       		.uleb128 0x29
 2285 0c9c 3C010000 		.4byte	.LBB7
 2286 0ca0 0E000000 		.4byte	.LBE7-.LBB7
 2287 0ca4 1E       		.uleb128 0x1e
 2288 0ca5 D5170000 		.4byte	.LASF313
 2289 0ca9 01       		.byte	0x1
 2290 0caa 9906     		.2byte	0x699
 2291 0cac 3E090000 		.4byte	0x93e
 2292 0cb0 05       		.uleb128 0x5
 2293 0cb1 03       		.byte	0x3
 2294 0cb2 00000000 		.4byte	gPrepWriteReqMem.6665
 2295 0cb6 00       		.byte	0
 2296 0cb7 00       		.byte	0
 2297 0cb8 1D       		.uleb128 0x1d
 2298 0cb9 6C010000 		.4byte	.LBB8
 2299 0cbd 2A000000 		.4byte	.LBE8-.LBB8
 2300 0cc1 FE0C0000 		.4byte	0xcfe
 2301 0cc5 1E       		.uleb128 0x1e
 2302 0cc6 AD000000 		.4byte	.LASF314
 2303 0cca 01       		.byte	0x1
 2304 0ccb BB06     		.2byte	0x6bb
 2305 0ccd 66030000 		.4byte	0x366
 2306 0cd1 02       		.uleb128 0x2
 2307 0cd2 91       		.byte	0x91
 2308 0cd3 64       		.sleb128 -28
 2309 0cd4 21       		.uleb128 0x21
 2310 0cd5 76010000 		.4byte	.LVL39
 2311 0cd9 8C0F0000 		.4byte	0xf8c
 2312 0cdd EB0C0000 		.4byte	0xceb
 2313 0ce1 20       		.uleb128 0x20
 2314 0ce2 01       		.uleb128 0x1
 2315 0ce3 51       		.byte	0x51
 2316 0ce4 05       		.uleb128 0x5
ARM GAS  C:\Users\owono\AppData\Local\Temp\ccFLv7mf.s 			page 80


 2317 0ce5 03       		.byte	0x3
 2318 0ce6 00000000 		.4byte	.LANCHOR1
 2319 0cea 00       		.byte	0
 2320 0ceb 2A       		.uleb128 0x2a
 2321 0cec 88010000 		.4byte	.LVL40
 2322 0cf0 20       		.uleb128 0x20
 2323 0cf1 01       		.uleb128 0x1
 2324 0cf2 50       		.byte	0x50
 2325 0cf3 02       		.uleb128 0x2
 2326 0cf4 08       		.byte	0x8
 2327 0cf5 36       		.byte	0x36
 2328 0cf6 20       		.uleb128 0x20
 2329 0cf7 01       		.uleb128 0x1
 2330 0cf8 51       		.byte	0x51
 2331 0cf9 02       		.uleb128 0x2
 2332 0cfa 91       		.byte	0x91
 2333 0cfb 64       		.sleb128 -28
 2334 0cfc 00       		.byte	0
 2335 0cfd 00       		.byte	0
 2336 0cfe 1D       		.uleb128 0x1d
 2337 0cff 2C020000 		.4byte	.LBB9
 2338 0d03 0E000000 		.4byte	.LBE9-.LBB9
 2339 0d07 250D0000 		.4byte	0xd25
 2340 0d0b 26       		.uleb128 0x26
 2341 0d0c D3120000 		.4byte	.LASF315
 2342 0d10 01       		.byte	0x1
 2343 0d11 7807     		.2byte	0x778
 2344 0d13 77000000 		.4byte	0x77
 2345 0d17 FA010000 		.4byte	.LLST9
 2346 0d1b 22       		.uleb128 0x22
 2347 0d1c 3A020000 		.4byte	.LVL50
 2348 0d20 980F0000 		.4byte	0xf98
 2349 0d24 00       		.byte	0
 2350 0d25 21       		.uleb128 0x21
 2351 0d26 96000000 		.4byte	.LVL24
 2352 0d2a 5B0B0000 		.4byte	0xb5b
 2353 0d2e 390D0000 		.4byte	0xd39
 2354 0d32 20       		.uleb128 0x20
 2355 0d33 01       		.uleb128 0x1
 2356 0d34 50       		.byte	0x50
 2357 0d35 02       		.uleb128 0x2
 2358 0d36 76       		.byte	0x76
 2359 0d37 00       		.sleb128 0
 2360 0d38 00       		.byte	0
 2361 0d39 21       		.uleb128 0x21
 2362 0d3a A0000000 		.4byte	.LVL25
 2363 0d3e A40F0000 		.4byte	0xfa4
 2364 0d42 4D0D0000 		.4byte	0xd4d
 2365 0d46 20       		.uleb128 0x20
 2366 0d47 01       		.uleb128 0x1
 2367 0d48 50       		.byte	0x50
 2368 0d49 02       		.uleb128 0x2
 2369 0d4a 76       		.byte	0x76
 2370 0d4b 00       		.sleb128 0
 2371 0d4c 00       		.byte	0
 2372 0d4d 21       		.uleb128 0x21
 2373 0d4e AA000000 		.4byte	.LVL26
ARM GAS  C:\Users\owono\AppData\Local\Temp\ccFLv7mf.s 			page 81


 2374 0d52 B00F0000 		.4byte	0xfb0
 2375 0d56 600D0000 		.4byte	0xd60
 2376 0d5a 20       		.uleb128 0x20
 2377 0d5b 01       		.uleb128 0x1
 2378 0d5c 51       		.byte	0x51
 2379 0d5d 01       		.uleb128 0x1
 2380 0d5e 30       		.byte	0x30
 2381 0d5f 00       		.byte	0
 2382 0d60 21       		.uleb128 0x21
 2383 0d61 B2000000 		.4byte	.LVL27
 2384 0d65 B00F0000 		.4byte	0xfb0
 2385 0d69 730D0000 		.4byte	0xd73
 2386 0d6d 20       		.uleb128 0x20
 2387 0d6e 01       		.uleb128 0x1
 2388 0d6f 51       		.byte	0x51
 2389 0d70 01       		.uleb128 0x1
 2390 0d71 31       		.byte	0x31
 2391 0d72 00       		.byte	0
 2392 0d73 21       		.uleb128 0x21
 2393 0d74 FA000000 		.4byte	.LVL30
 2394 0d78 A40F0000 		.4byte	0xfa4
 2395 0d7c 870D0000 		.4byte	0xd87
 2396 0d80 20       		.uleb128 0x20
 2397 0d81 01       		.uleb128 0x1
 2398 0d82 50       		.byte	0x50
 2399 0d83 02       		.uleb128 0x2
 2400 0d84 76       		.byte	0x76
 2401 0d85 00       		.sleb128 0
 2402 0d86 00       		.byte	0
 2403 0d87 21       		.uleb128 0x21
 2404 0d88 02010000 		.4byte	.LVL31
 2405 0d8c B00F0000 		.4byte	0xfb0
 2406 0d90 A00D0000 		.4byte	0xda0
 2407 0d94 20       		.uleb128 0x20
 2408 0d95 01       		.uleb128 0x1
 2409 0d96 50       		.byte	0x50
 2410 0d97 02       		.uleb128 0x2
 2411 0d98 76       		.byte	0x76
 2412 0d99 00       		.sleb128 0
 2413 0d9a 20       		.uleb128 0x20
 2414 0d9b 01       		.uleb128 0x1
 2415 0d9c 51       		.byte	0x51
 2416 0d9d 01       		.uleb128 0x1
 2417 0d9e 30       		.byte	0x30
 2418 0d9f 00       		.byte	0
 2419 0da0 21       		.uleb128 0x21
 2420 0da1 0A010000 		.4byte	.LVL32
 2421 0da5 B00F0000 		.4byte	0xfb0
 2422 0da9 B90D0000 		.4byte	0xdb9
 2423 0dad 20       		.uleb128 0x20
 2424 0dae 01       		.uleb128 0x1
 2425 0daf 50       		.byte	0x50
 2426 0db0 02       		.uleb128 0x2
 2427 0db1 76       		.byte	0x76
 2428 0db2 00       		.sleb128 0
 2429 0db3 20       		.uleb128 0x20
 2430 0db4 01       		.uleb128 0x1
ARM GAS  C:\Users\owono\AppData\Local\Temp\ccFLv7mf.s 			page 82


 2431 0db5 51       		.byte	0x51
 2432 0db6 01       		.uleb128 0x1
 2433 0db7 31       		.byte	0x31
 2434 0db8 00       		.byte	0
 2435 0db9 21       		.uleb128 0x21
 2436 0dba 10010000 		.4byte	.LVL33
 2437 0dbe BC0F0000 		.4byte	0xfbc
 2438 0dc2 CC0D0000 		.4byte	0xdcc
 2439 0dc6 20       		.uleb128 0x20
 2440 0dc7 01       		.uleb128 0x1
 2441 0dc8 50       		.byte	0x50
 2442 0dc9 01       		.uleb128 0x1
 2443 0dca 30       		.byte	0x30
 2444 0dcb 00       		.byte	0
 2445 0dcc 21       		.uleb128 0x21
 2446 0dcd 0A020000 		.4byte	.LVL43
 2447 0dd1 C80F0000 		.4byte	0xfc8
 2448 0dd5 EB0D0000 		.4byte	0xdeb
 2449 0dd9 20       		.uleb128 0x20
 2450 0dda 01       		.uleb128 0x1
 2451 0ddb 50       		.byte	0x50
 2452 0ddc 02       		.uleb128 0x2
 2453 0ddd 76       		.byte	0x76
 2454 0dde 00       		.sleb128 0
 2455 0ddf 20       		.uleb128 0x20
 2456 0de0 01       		.uleb128 0x1
 2457 0de1 51       		.byte	0x51
 2458 0de2 02       		.uleb128 0x2
 2459 0de3 75       		.byte	0x75
 2460 0de4 00       		.sleb128 0
 2461 0de5 20       		.uleb128 0x20
 2462 0de6 01       		.uleb128 0x1
 2463 0de7 52       		.byte	0x52
 2464 0de8 01       		.uleb128 0x1
 2465 0de9 32       		.byte	0x32
 2466 0dea 00       		.byte	0
 2467 0deb 21       		.uleb128 0x21
 2468 0dec 24020000 		.4byte	.LVL44
 2469 0df0 C80F0000 		.4byte	0xfc8
 2470 0df4 FE0D0000 		.4byte	0xdfe
 2471 0df8 20       		.uleb128 0x20
 2472 0df9 01       		.uleb128 0x1
 2473 0dfa 52       		.byte	0x52
 2474 0dfb 01       		.uleb128 0x1
 2475 0dfc 34       		.byte	0x34
 2476 0dfd 00       		.byte	0
 2477 0dfe 22       		.uleb128 0x22
 2478 0dff 2A020000 		.4byte	.LVL46
 2479 0e03 C50A0000 		.4byte	0xac5
 2480 0e07 21       		.uleb128 0x21
 2481 0e08 42020000 		.4byte	.LVL53
 2482 0e0c D70A0000 		.4byte	0xad7
 2483 0e10 1B0E0000 		.4byte	0xe1b
 2484 0e14 20       		.uleb128 0x20
 2485 0e15 01       		.uleb128 0x1
 2486 0e16 50       		.byte	0x50
 2487 0e17 02       		.uleb128 0x2
ARM GAS  C:\Users\owono\AppData\Local\Temp\ccFLv7mf.s 			page 83


 2488 0e18 75       		.byte	0x75
 2489 0e19 00       		.sleb128 0
 2490 0e1a 00       		.byte	0
 2491 0e1b 2A       		.uleb128 0x2a
 2492 0e1c 6C020000 		.4byte	.LVL56
 2493 0e20 20       		.uleb128 0x20
 2494 0e21 01       		.uleb128 0x1
 2495 0e22 50       		.byte	0x50
 2496 0e23 02       		.uleb128 0x2
 2497 0e24 74       		.byte	0x74
 2498 0e25 00       		.sleb128 0
 2499 0e26 20       		.uleb128 0x20
 2500 0e27 01       		.uleb128 0x1
 2501 0e28 51       		.byte	0x51
 2502 0e29 02       		.uleb128 0x2
 2503 0e2a 75       		.byte	0x75
 2504 0e2b 00       		.sleb128 0
 2505 0e2c 00       		.byte	0
 2506 0e2d 00       		.byte	0
 2507 0e2e 0F       		.uleb128 0xf
 2508 0e2f 6B000000 		.4byte	0x6b
 2509 0e33 3E0E0000 		.4byte	0xe3e
 2510 0e37 10       		.uleb128 0x10
 2511 0e38 B0000000 		.4byte	0xb0
 2512 0e3c 01       		.byte	0x1
 2513 0e3d 00       		.byte	0
 2514 0e3e 07       		.uleb128 0x7
 2515 0e3f 04       		.byte	0x4
 2516 0e40 75040000 		.4byte	0x475
 2517 0e44 2B       		.uleb128 0x2b
 2518 0e45 4E1C0000 		.4byte	.LASF316
 2519 0e49 08       		.byte	0x8
 2520 0e4a 9C02     		.2byte	0x29c
 2521 0e4c AE090000 		.4byte	0x9ae
 2522 0e50 0F       		.uleb128 0xf
 2523 0e51 6B000000 		.4byte	0x6b
 2524 0e55 610E0000 		.4byte	0xe61
 2525 0e59 18       		.uleb128 0x18
 2526 0e5a B0000000 		.4byte	0xb0
 2527 0e5e DF0A     		.2byte	0xadf
 2528 0e60 00       		.byte	0
 2529 0e61 2B       		.uleb128 0x2b
 2530 0e62 47200000 		.4byte	.LASF317
 2531 0e66 08       		.byte	0x8
 2532 0e67 A102     		.2byte	0x2a1
 2533 0e69 500E0000 		.4byte	0xe50
 2534 0e6d 2C       		.uleb128 0x2c
 2535 0e6e A60C0000 		.4byte	.LASF318
 2536 0e72 01       		.byte	0x1
 2537 0e73 3D       		.byte	0x3d
 2538 0e74 A4000000 		.4byte	0xa4
 2539 0e78 05       		.uleb128 0x5
 2540 0e79 03       		.byte	0x3
 2541 0e7a 00000000 		.4byte	cyBle_eventHandlerFlag
 2542 0e7e 2B       		.uleb128 0x2b
 2543 0e7f 6A070000 		.4byte	.LASF319
 2544 0e83 08       		.byte	0x8
ARM GAS  C:\Users\owono\AppData\Local\Temp\ccFLv7mf.s 			page 84


 2545 0e84 A402     		.2byte	0x2a4
 2546 0e86 B5040000 		.4byte	0x4b5
 2547 0e8a 2B       		.uleb128 0x2b
 2548 0e8b BB0E0000 		.4byte	.LASF320
 2549 0e8f 08       		.byte	0x8
 2550 0e90 A502     		.2byte	0x2a5
 2551 0e92 960E0000 		.4byte	0xe96
 2552 0e96 07       		.uleb128 0x7
 2553 0e97 04       		.byte	0x4
 2554 0e98 B5040000 		.4byte	0x4b5
 2555 0e9c 2C       		.uleb128 0x2c
 2556 0e9d 6F1E0000 		.4byte	.LASF321
 2557 0ea1 01       		.byte	0x1
 2558 0ea2 E1       		.byte	0xe1
 2559 0ea3 20060000 		.4byte	0x620
 2560 0ea7 05       		.uleb128 0x5
 2561 0ea8 03       		.byte	0x3
 2562 0ea9 00000000 		.4byte	cyBle_authInfo
 2563 0ead 2B       		.uleb128 0x2b
 2564 0eae 501D0000 		.4byte	.LASF322
 2565 0eb2 08       		.byte	0x8
 2566 0eb3 C202     		.2byte	0x2c2
 2567 0eb5 6B000000 		.4byte	0x6b
 2568 0eb9 2B       		.uleb128 0x2b
 2569 0eba 00000000 		.4byte	.LASF323
 2570 0ebe 08       		.byte	0x8
 2571 0ebf C802     		.2byte	0x2c8
 2572 0ec1 6B000000 		.4byte	0x6b
 2573 0ec5 0F       		.uleb128 0xf
 2574 0ec6 6B000000 		.4byte	0x6b
 2575 0eca D50E0000 		.4byte	0xed5
 2576 0ece 10       		.uleb128 0x10
 2577 0ecf B0000000 		.4byte	0xb0
 2578 0ed3 03       		.byte	0x3
 2579 0ed4 00       		.byte	0
 2580 0ed5 2D       		.uleb128 0x2d
 2581 0ed6 98210000 		.4byte	.LASF324
 2582 0eda 09       		.byte	0x9
 2583 0edb EC       		.byte	0xec
 2584 0edc C50E0000 		.4byte	0xec5
 2585 0ee0 2D       		.uleb128 0x2d
 2586 0ee1 A0130000 		.4byte	.LASF325
 2587 0ee5 09       		.byte	0x9
 2588 0ee6 F4       		.byte	0xf4
 2589 0ee7 EB0E0000 		.4byte	0xeeb
 2590 0eeb 27       		.uleb128 0x27
 2591 0eec 1E0A0000 		.4byte	0xa1e
 2592 0ef0 2B       		.uleb128 0x2b
 2593 0ef1 C81D0000 		.4byte	.LASF326
 2594 0ef5 0A       		.byte	0xa
 2595 0ef6 A90A     		.2byte	0xaa9
 2596 0ef8 550A0000 		.4byte	0xa55
 2597 0efc 2C       		.uleb128 0x2c
 2598 0efd E00D0000 		.4byte	.LASF327
 2599 0f01 01       		.byte	0x1
 2600 0f02 3B       		.byte	0x3b
 2601 0f03 64080000 		.4byte	0x864
ARM GAS  C:\Users\owono\AppData\Local\Temp\ccFLv7mf.s 			page 85


 2602 0f07 05       		.uleb128 0x5
 2603 0f08 03       		.byte	0x3
 2604 0f09 00000000 		.4byte	cyBle_connHandle
 2605 0f0d 2C       		.uleb128 0x2c
 2606 0f0e 8D120000 		.4byte	.LASF328
 2607 0f12 01       		.byte	0x1
 2608 0f13 3E       		.byte	0x3e
 2609 0f14 A4000000 		.4byte	0xa4
 2610 0f18 05       		.uleb128 0x5
 2611 0f19 03       		.byte	0x3
 2612 0f1a 00000000 		.4byte	cyBle_busyStatus
 2613 0f1e 2C       		.uleb128 0x2c
 2614 0f1f D50D0000 		.4byte	.LASF329
 2615 0f23 01       		.byte	0x1
 2616 0f24 40       		.byte	0x40
 2617 0f25 2F0F0000 		.4byte	0xf2f
 2618 0f29 05       		.uleb128 0x5
 2619 0f2a 03       		.byte	0x3
 2620 0f2b 00000000 		.4byte	cyBle_gaps
 2621 0f2f 27       		.uleb128 0x27
 2622 0f30 B90A0000 		.4byte	0xab9
 2623 0f34 2C       		.uleb128 0x2c
 2624 0f35 5C200000 		.4byte	.LASF330
 2625 0f39 01       		.byte	0x1
 2626 0f3a 4C       		.byte	0x4c
 2627 0f3b 6B000000 		.4byte	0x6b
 2628 0f3f 05       		.uleb128 0x5
 2629 0f40 03       		.byte	0x3
 2630 0f41 00000000 		.4byte	cyBle_advertisingIntervalType
 2631 0f45 2E       		.uleb128 0x2e
 2632 0f46 E7200000 		.4byte	.LASF331
 2633 0f4a E7200000 		.4byte	.LASF331
 2634 0f4e 07       		.byte	0x7
 2635 0f4f 4001     		.2byte	0x140
 2636 0f51 2F       		.uleb128 0x2f
 2637 0f52 3E170000 		.4byte	.LASF332
 2638 0f56 3E170000 		.4byte	.LASF332
 2639 0f5a 09       		.byte	0x9
 2640 0f5b D3       		.byte	0xd3
 2641 0f5c 2E       		.uleb128 0x2e
 2642 0f5d 94050000 		.4byte	.LASF333
 2643 0f61 94050000 		.4byte	.LASF333
 2644 0f65 07       		.byte	0x7
 2645 0f66 C201     		.2byte	0x1c2
 2646 0f68 2E       		.uleb128 0x2e
 2647 0f69 25060000 		.4byte	.LASF334
 2648 0f6d 25060000 		.4byte	.LASF334
 2649 0f71 03       		.byte	0x3
 2650 0f72 8308     		.2byte	0x883
 2651 0f74 2E       		.uleb128 0x2e
 2652 0f75 D41D0000 		.4byte	.LASF335
 2653 0f79 D41D0000 		.4byte	.LASF335
 2654 0f7d 03       		.byte	0x3
 2655 0f7e 550C     		.2byte	0xc55
 2656 0f80 2E       		.uleb128 0x2e
 2657 0f81 00140000 		.4byte	.LASF336
 2658 0f85 00140000 		.4byte	.LASF336
ARM GAS  C:\Users\owono\AppData\Local\Temp\ccFLv7mf.s 			page 86


 2659 0f89 05       		.byte	0x5
 2660 0f8a 290D     		.2byte	0xd29
 2661 0f8c 2E       		.uleb128 0x2e
 2662 0f8d B3130000 		.4byte	.LASF337
 2663 0f91 B3130000 		.4byte	.LASF337
 2664 0f95 05       		.byte	0x5
 2665 0f96 7808     		.2byte	0x878
 2666 0f98 2E       		.uleb128 0x2e
 2667 0f99 350F0000 		.4byte	.LASF338
 2668 0f9d 350F0000 		.4byte	.LASF338
 2669 0fa1 07       		.byte	0x7
 2670 0fa2 7C01     		.2byte	0x17c
 2671 0fa4 2E       		.uleb128 0x2e
 2672 0fa5 5B000000 		.4byte	.LASF339
 2673 0fa9 5B000000 		.4byte	.LASF339
 2674 0fad 03       		.byte	0x3
 2675 0fae 0408     		.2byte	0x804
 2676 0fb0 2E       		.uleb128 0x2e
 2677 0fb1 9E120000 		.4byte	.LASF340
 2678 0fb5 9E120000 		.4byte	.LASF340
 2679 0fb9 08       		.byte	0x8
 2680 0fba 8202     		.2byte	0x282
 2681 0fbc 2E       		.uleb128 0x2e
 2682 0fbd 9B000000 		.4byte	.LASF341
 2683 0fc1 9B000000 		.4byte	.LASF341
 2684 0fc5 05       		.byte	0x5
 2685 0fc6 DB04     		.2byte	0x4db
 2686 0fc8 30       		.uleb128 0x30
 2687 0fc9 4A210000 		.4byte	.LASF349
 2688 0fcd 4A210000 		.4byte	.LASF349
 2689 0fd1 00       		.byte	0
 2690              		.section	.debug_abbrev,"",%progbits
 2691              	.Ldebug_abbrev0:
 2692 0000 01       		.uleb128 0x1
 2693 0001 11       		.uleb128 0x11
 2694 0002 01       		.byte	0x1
 2695 0003 25       		.uleb128 0x25
 2696 0004 0E       		.uleb128 0xe
 2697 0005 13       		.uleb128 0x13
 2698 0006 0B       		.uleb128 0xb
 2699 0007 03       		.uleb128 0x3
 2700 0008 0E       		.uleb128 0xe
 2701 0009 1B       		.uleb128 0x1b
 2702 000a 0E       		.uleb128 0xe
 2703 000b 55       		.uleb128 0x55
 2704 000c 17       		.uleb128 0x17
 2705 000d 11       		.uleb128 0x11
 2706 000e 01       		.uleb128 0x1
 2707 000f 10       		.uleb128 0x10
 2708 0010 17       		.uleb128 0x17
 2709 0011 00       		.byte	0
 2710 0012 00       		.byte	0
 2711 0013 02       		.uleb128 0x2
 2712 0014 24       		.uleb128 0x24
 2713 0015 00       		.byte	0
 2714 0016 0B       		.uleb128 0xb
 2715 0017 0B       		.uleb128 0xb
ARM GAS  C:\Users\owono\AppData\Local\Temp\ccFLv7mf.s 			page 87


 2716 0018 3E       		.uleb128 0x3e
 2717 0019 0B       		.uleb128 0xb
 2718 001a 03       		.uleb128 0x3
 2719 001b 0E       		.uleb128 0xe
 2720 001c 00       		.byte	0
 2721 001d 00       		.byte	0
 2722 001e 03       		.uleb128 0x3
 2723 001f 24       		.uleb128 0x24
 2724 0020 00       		.byte	0
 2725 0021 0B       		.uleb128 0xb
 2726 0022 0B       		.uleb128 0xb
 2727 0023 3E       		.uleb128 0x3e
 2728 0024 0B       		.uleb128 0xb
 2729 0025 03       		.uleb128 0x3
 2730 0026 08       		.uleb128 0x8
 2731 0027 00       		.byte	0
 2732 0028 00       		.byte	0
 2733 0029 04       		.uleb128 0x4
 2734 002a 16       		.uleb128 0x16
 2735 002b 00       		.byte	0
 2736 002c 03       		.uleb128 0x3
 2737 002d 0E       		.uleb128 0xe
 2738 002e 3A       		.uleb128 0x3a
 2739 002f 0B       		.uleb128 0xb
 2740 0030 3B       		.uleb128 0x3b
 2741 0031 05       		.uleb128 0x5
 2742 0032 49       		.uleb128 0x49
 2743 0033 13       		.uleb128 0x13
 2744 0034 00       		.byte	0
 2745 0035 00       		.byte	0
 2746 0036 05       		.uleb128 0x5
 2747 0037 35       		.uleb128 0x35
 2748 0038 00       		.byte	0
 2749 0039 49       		.uleb128 0x49
 2750 003a 13       		.uleb128 0x13
 2751 003b 00       		.byte	0
 2752 003c 00       		.byte	0
 2753 003d 06       		.uleb128 0x6
 2754 003e 0F       		.uleb128 0xf
 2755 003f 00       		.byte	0
 2756 0040 0B       		.uleb128 0xb
 2757 0041 0B       		.uleb128 0xb
 2758 0042 00       		.byte	0
 2759 0043 00       		.byte	0
 2760 0044 07       		.uleb128 0x7
 2761 0045 0F       		.uleb128 0xf
 2762 0046 00       		.byte	0
 2763 0047 0B       		.uleb128 0xb
 2764 0048 0B       		.uleb128 0xb
 2765 0049 49       		.uleb128 0x49
 2766 004a 13       		.uleb128 0x13
 2767 004b 00       		.byte	0
 2768 004c 00       		.byte	0
 2769 004d 08       		.uleb128 0x8
 2770 004e 15       		.uleb128 0x15
 2771 004f 01       		.byte	0x1
 2772 0050 27       		.uleb128 0x27
ARM GAS  C:\Users\owono\AppData\Local\Temp\ccFLv7mf.s 			page 88


 2773 0051 19       		.uleb128 0x19
 2774 0052 01       		.uleb128 0x1
 2775 0053 13       		.uleb128 0x13
 2776 0054 00       		.byte	0
 2777 0055 00       		.byte	0
 2778 0056 09       		.uleb128 0x9
 2779 0057 05       		.uleb128 0x5
 2780 0058 00       		.byte	0
 2781 0059 49       		.uleb128 0x49
 2782 005a 13       		.uleb128 0x13
 2783 005b 00       		.byte	0
 2784 005c 00       		.byte	0
 2785 005d 0A       		.uleb128 0xa
 2786 005e 04       		.uleb128 0x4
 2787 005f 01       		.byte	0x1
 2788 0060 0B       		.uleb128 0xb
 2789 0061 0B       		.uleb128 0xb
 2790 0062 49       		.uleb128 0x49
 2791 0063 13       		.uleb128 0x13
 2792 0064 3A       		.uleb128 0x3a
 2793 0065 0B       		.uleb128 0xb
 2794 0066 3B       		.uleb128 0x3b
 2795 0067 05       		.uleb128 0x5
 2796 0068 01       		.uleb128 0x1
 2797 0069 13       		.uleb128 0x13
 2798 006a 00       		.byte	0
 2799 006b 00       		.byte	0
 2800 006c 0B       		.uleb128 0xb
 2801 006d 28       		.uleb128 0x28
 2802 006e 00       		.byte	0
 2803 006f 03       		.uleb128 0x3
 2804 0070 0E       		.uleb128 0xe
 2805 0071 1C       		.uleb128 0x1c
 2806 0072 0B       		.uleb128 0xb
 2807 0073 00       		.byte	0
 2808 0074 00       		.byte	0
 2809 0075 0C       		.uleb128 0xc
 2810 0076 28       		.uleb128 0x28
 2811 0077 00       		.byte	0
 2812 0078 03       		.uleb128 0x3
 2813 0079 0E       		.uleb128 0xe
 2814 007a 1C       		.uleb128 0x1c
 2815 007b 05       		.uleb128 0x5
 2816 007c 00       		.byte	0
 2817 007d 00       		.byte	0
 2818 007e 0D       		.uleb128 0xd
 2819 007f 13       		.uleb128 0x13
 2820 0080 01       		.byte	0x1
 2821 0081 0B       		.uleb128 0xb
 2822 0082 0B       		.uleb128 0xb
 2823 0083 3A       		.uleb128 0x3a
 2824 0084 0B       		.uleb128 0xb
 2825 0085 3B       		.uleb128 0x3b
 2826 0086 05       		.uleb128 0x5
 2827 0087 01       		.uleb128 0x1
 2828 0088 13       		.uleb128 0x13
 2829 0089 00       		.byte	0
ARM GAS  C:\Users\owono\AppData\Local\Temp\ccFLv7mf.s 			page 89


 2830 008a 00       		.byte	0
 2831 008b 0E       		.uleb128 0xe
 2832 008c 0D       		.uleb128 0xd
 2833 008d 00       		.byte	0
 2834 008e 03       		.uleb128 0x3
 2835 008f 0E       		.uleb128 0xe
 2836 0090 3A       		.uleb128 0x3a
 2837 0091 0B       		.uleb128 0xb
 2838 0092 3B       		.uleb128 0x3b
 2839 0093 05       		.uleb128 0x5
 2840 0094 49       		.uleb128 0x49
 2841 0095 13       		.uleb128 0x13
 2842 0096 38       		.uleb128 0x38
 2843 0097 0B       		.uleb128 0xb
 2844 0098 00       		.byte	0
 2845 0099 00       		.byte	0
 2846 009a 0F       		.uleb128 0xf
 2847 009b 01       		.uleb128 0x1
 2848 009c 01       		.byte	0x1
 2849 009d 49       		.uleb128 0x49
 2850 009e 13       		.uleb128 0x13
 2851 009f 01       		.uleb128 0x1
 2852 00a0 13       		.uleb128 0x13
 2853 00a1 00       		.byte	0
 2854 00a2 00       		.byte	0
 2855 00a3 10       		.uleb128 0x10
 2856 00a4 21       		.uleb128 0x21
 2857 00a5 00       		.byte	0
 2858 00a6 49       		.uleb128 0x49
 2859 00a7 13       		.uleb128 0x13
 2860 00a8 2F       		.uleb128 0x2f
 2861 00a9 0B       		.uleb128 0xb
 2862 00aa 00       		.byte	0
 2863 00ab 00       		.byte	0
 2864 00ac 11       		.uleb128 0x11
 2865 00ad 04       		.uleb128 0x4
 2866 00ae 01       		.byte	0x1
 2867 00af 0B       		.uleb128 0xb
 2868 00b0 0B       		.uleb128 0xb
 2869 00b1 49       		.uleb128 0x49
 2870 00b2 13       		.uleb128 0x13
 2871 00b3 3A       		.uleb128 0x3a
 2872 00b4 0B       		.uleb128 0xb
 2873 00b5 3B       		.uleb128 0x3b
 2874 00b6 0B       		.uleb128 0xb
 2875 00b7 01       		.uleb128 0x1
 2876 00b8 13       		.uleb128 0x13
 2877 00b9 00       		.byte	0
 2878 00ba 00       		.byte	0
 2879 00bb 12       		.uleb128 0x12
 2880 00bc 16       		.uleb128 0x16
 2881 00bd 00       		.byte	0
 2882 00be 03       		.uleb128 0x3
 2883 00bf 0E       		.uleb128 0xe
 2884 00c0 3A       		.uleb128 0x3a
 2885 00c1 0B       		.uleb128 0xb
 2886 00c2 3B       		.uleb128 0x3b
ARM GAS  C:\Users\owono\AppData\Local\Temp\ccFLv7mf.s 			page 90


 2887 00c3 0B       		.uleb128 0xb
 2888 00c4 49       		.uleb128 0x49
 2889 00c5 13       		.uleb128 0x13
 2890 00c6 00       		.byte	0
 2891 00c7 00       		.byte	0
 2892 00c8 13       		.uleb128 0x13
 2893 00c9 0D       		.uleb128 0xd
 2894 00ca 00       		.byte	0
 2895 00cb 03       		.uleb128 0x3
 2896 00cc 08       		.uleb128 0x8
 2897 00cd 3A       		.uleb128 0x3a
 2898 00ce 0B       		.uleb128 0xb
 2899 00cf 3B       		.uleb128 0x3b
 2900 00d0 05       		.uleb128 0x5
 2901 00d1 49       		.uleb128 0x49
 2902 00d2 13       		.uleb128 0x13
 2903 00d3 38       		.uleb128 0x38
 2904 00d4 0B       		.uleb128 0xb
 2905 00d5 00       		.byte	0
 2906 00d6 00       		.byte	0
 2907 00d7 14       		.uleb128 0x14
 2908 00d8 13       		.uleb128 0x13
 2909 00d9 01       		.byte	0x1
 2910 00da 0B       		.uleb128 0xb
 2911 00db 0B       		.uleb128 0xb
 2912 00dc 3A       		.uleb128 0x3a
 2913 00dd 0B       		.uleb128 0xb
 2914 00de 3B       		.uleb128 0x3b
 2915 00df 0B       		.uleb128 0xb
 2916 00e0 01       		.uleb128 0x1
 2917 00e1 13       		.uleb128 0x13
 2918 00e2 00       		.byte	0
 2919 00e3 00       		.byte	0
 2920 00e4 15       		.uleb128 0x15
 2921 00e5 0D       		.uleb128 0xd
 2922 00e6 00       		.byte	0
 2923 00e7 03       		.uleb128 0x3
 2924 00e8 0E       		.uleb128 0xe
 2925 00e9 3A       		.uleb128 0x3a
 2926 00ea 0B       		.uleb128 0xb
 2927 00eb 3B       		.uleb128 0x3b
 2928 00ec 0B       		.uleb128 0xb
 2929 00ed 49       		.uleb128 0x49
 2930 00ee 13       		.uleb128 0x13
 2931 00ef 38       		.uleb128 0x38
 2932 00f0 0B       		.uleb128 0xb
 2933 00f1 00       		.byte	0
 2934 00f2 00       		.byte	0
 2935 00f3 16       		.uleb128 0x16
 2936 00f4 13       		.uleb128 0x13
 2937 00f5 01       		.byte	0x1
 2938 00f6 0B       		.uleb128 0xb
 2939 00f7 05       		.uleb128 0x5
 2940 00f8 3A       		.uleb128 0x3a
 2941 00f9 0B       		.uleb128 0xb
 2942 00fa 3B       		.uleb128 0x3b
 2943 00fb 0B       		.uleb128 0xb
ARM GAS  C:\Users\owono\AppData\Local\Temp\ccFLv7mf.s 			page 91


 2944 00fc 01       		.uleb128 0x1
 2945 00fd 13       		.uleb128 0x13
 2946 00fe 00       		.byte	0
 2947 00ff 00       		.byte	0
 2948 0100 17       		.uleb128 0x17
 2949 0101 0D       		.uleb128 0xd
 2950 0102 00       		.byte	0
 2951 0103 03       		.uleb128 0x3
 2952 0104 0E       		.uleb128 0xe
 2953 0105 3A       		.uleb128 0x3a
 2954 0106 0B       		.uleb128 0xb
 2955 0107 3B       		.uleb128 0x3b
 2956 0108 0B       		.uleb128 0xb
 2957 0109 49       		.uleb128 0x49
 2958 010a 13       		.uleb128 0x13
 2959 010b 38       		.uleb128 0x38
 2960 010c 05       		.uleb128 0x5
 2961 010d 00       		.byte	0
 2962 010e 00       		.byte	0
 2963 010f 18       		.uleb128 0x18
 2964 0110 21       		.uleb128 0x21
 2965 0111 00       		.byte	0
 2966 0112 49       		.uleb128 0x49
 2967 0113 13       		.uleb128 0x13
 2968 0114 2F       		.uleb128 0x2f
 2969 0115 05       		.uleb128 0x5
 2970 0116 00       		.byte	0
 2971 0117 00       		.byte	0
 2972 0118 19       		.uleb128 0x19
 2973 0119 2E       		.uleb128 0x2e
 2974 011a 00       		.byte	0
 2975 011b 03       		.uleb128 0x3
 2976 011c 0E       		.uleb128 0xe
 2977 011d 3A       		.uleb128 0x3a
 2978 011e 0B       		.uleb128 0xb
 2979 011f 3B       		.uleb128 0x3b
 2980 0120 05       		.uleb128 0x5
 2981 0121 27       		.uleb128 0x27
 2982 0122 19       		.uleb128 0x19
 2983 0123 11       		.uleb128 0x11
 2984 0124 01       		.uleb128 0x1
 2985 0125 12       		.uleb128 0x12
 2986 0126 06       		.uleb128 0x6
 2987 0127 40       		.uleb128 0x40
 2988 0128 18       		.uleb128 0x18
 2989 0129 9742     		.uleb128 0x2117
 2990 012b 19       		.uleb128 0x19
 2991 012c 00       		.byte	0
 2992 012d 00       		.byte	0
 2993 012e 1A       		.uleb128 0x1a
 2994 012f 2E       		.uleb128 0x2e
 2995 0130 01       		.byte	0x1
 2996 0131 03       		.uleb128 0x3
 2997 0132 0E       		.uleb128 0xe
 2998 0133 3A       		.uleb128 0x3a
 2999 0134 0B       		.uleb128 0xb
 3000 0135 3B       		.uleb128 0x3b
ARM GAS  C:\Users\owono\AppData\Local\Temp\ccFLv7mf.s 			page 92


 3001 0136 0B       		.uleb128 0xb
 3002 0137 27       		.uleb128 0x27
 3003 0138 19       		.uleb128 0x19
 3004 0139 11       		.uleb128 0x11
 3005 013a 01       		.uleb128 0x1
 3006 013b 12       		.uleb128 0x12
 3007 013c 06       		.uleb128 0x6
 3008 013d 40       		.uleb128 0x40
 3009 013e 18       		.uleb128 0x18
 3010 013f 9742     		.uleb128 0x2117
 3011 0141 19       		.uleb128 0x19
 3012 0142 01       		.uleb128 0x1
 3013 0143 13       		.uleb128 0x13
 3014 0144 00       		.byte	0
 3015 0145 00       		.byte	0
 3016 0146 1B       		.uleb128 0x1b
 3017 0147 05       		.uleb128 0x5
 3018 0148 00       		.byte	0
 3019 0149 03       		.uleb128 0x3
 3020 014a 0E       		.uleb128 0xe
 3021 014b 3A       		.uleb128 0x3a
 3022 014c 0B       		.uleb128 0xb
 3023 014d 3B       		.uleb128 0x3b
 3024 014e 0B       		.uleb128 0xb
 3025 014f 49       		.uleb128 0x49
 3026 0150 13       		.uleb128 0x13
 3027 0151 02       		.uleb128 0x2
 3028 0152 17       		.uleb128 0x17
 3029 0153 00       		.byte	0
 3030 0154 00       		.byte	0
 3031 0155 1C       		.uleb128 0x1c
 3032 0156 34       		.uleb128 0x34
 3033 0157 00       		.byte	0
 3034 0158 03       		.uleb128 0x3
 3035 0159 0E       		.uleb128 0xe
 3036 015a 3A       		.uleb128 0x3a
 3037 015b 0B       		.uleb128 0xb
 3038 015c 3B       		.uleb128 0x3b
 3039 015d 0B       		.uleb128 0xb
 3040 015e 49       		.uleb128 0x49
 3041 015f 13       		.uleb128 0x13
 3042 0160 02       		.uleb128 0x2
 3043 0161 17       		.uleb128 0x17
 3044 0162 00       		.byte	0
 3045 0163 00       		.byte	0
 3046 0164 1D       		.uleb128 0x1d
 3047 0165 0B       		.uleb128 0xb
 3048 0166 01       		.byte	0x1
 3049 0167 11       		.uleb128 0x11
 3050 0168 01       		.uleb128 0x1
 3051 0169 12       		.uleb128 0x12
 3052 016a 06       		.uleb128 0x6
 3053 016b 01       		.uleb128 0x1
 3054 016c 13       		.uleb128 0x13
 3055 016d 00       		.byte	0
 3056 016e 00       		.byte	0
 3057 016f 1E       		.uleb128 0x1e
ARM GAS  C:\Users\owono\AppData\Local\Temp\ccFLv7mf.s 			page 93


 3058 0170 34       		.uleb128 0x34
 3059 0171 00       		.byte	0
 3060 0172 03       		.uleb128 0x3
 3061 0173 0E       		.uleb128 0xe
 3062 0174 3A       		.uleb128 0x3a
 3063 0175 0B       		.uleb128 0xb
 3064 0176 3B       		.uleb128 0x3b
 3065 0177 05       		.uleb128 0x5
 3066 0178 49       		.uleb128 0x49
 3067 0179 13       		.uleb128 0x13
 3068 017a 02       		.uleb128 0x2
 3069 017b 18       		.uleb128 0x18
 3070 017c 00       		.byte	0
 3071 017d 00       		.byte	0
 3072 017e 1F       		.uleb128 0x1f
 3073 017f 898201   		.uleb128 0x4109
 3074 0182 01       		.byte	0x1
 3075 0183 11       		.uleb128 0x11
 3076 0184 01       		.uleb128 0x1
 3077 0185 31       		.uleb128 0x31
 3078 0186 13       		.uleb128 0x13
 3079 0187 00       		.byte	0
 3080 0188 00       		.byte	0
 3081 0189 20       		.uleb128 0x20
 3082 018a 8A8201   		.uleb128 0x410a
 3083 018d 00       		.byte	0
 3084 018e 02       		.uleb128 0x2
 3085 018f 18       		.uleb128 0x18
 3086 0190 9142     		.uleb128 0x2111
 3087 0192 18       		.uleb128 0x18
 3088 0193 00       		.byte	0
 3089 0194 00       		.byte	0
 3090 0195 21       		.uleb128 0x21
 3091 0196 898201   		.uleb128 0x4109
 3092 0199 01       		.byte	0x1
 3093 019a 11       		.uleb128 0x11
 3094 019b 01       		.uleb128 0x1
 3095 019c 31       		.uleb128 0x31
 3096 019d 13       		.uleb128 0x13
 3097 019e 01       		.uleb128 0x1
 3098 019f 13       		.uleb128 0x13
 3099 01a0 00       		.byte	0
 3100 01a1 00       		.byte	0
 3101 01a2 22       		.uleb128 0x22
 3102 01a3 898201   		.uleb128 0x4109
 3103 01a6 00       		.byte	0
 3104 01a7 11       		.uleb128 0x11
 3105 01a8 01       		.uleb128 0x1
 3106 01a9 31       		.uleb128 0x31
 3107 01aa 13       		.uleb128 0x13
 3108 01ab 00       		.byte	0
 3109 01ac 00       		.byte	0
 3110 01ad 23       		.uleb128 0x23
 3111 01ae 2E       		.uleb128 0x2e
 3112 01af 01       		.byte	0x1
 3113 01b0 3F       		.uleb128 0x3f
 3114 01b1 19       		.uleb128 0x19
ARM GAS  C:\Users\owono\AppData\Local\Temp\ccFLv7mf.s 			page 94


 3115 01b2 03       		.uleb128 0x3
 3116 01b3 0E       		.uleb128 0xe
 3117 01b4 3A       		.uleb128 0x3a
 3118 01b5 0B       		.uleb128 0xb
 3119 01b6 3B       		.uleb128 0x3b
 3120 01b7 05       		.uleb128 0x5
 3121 01b8 27       		.uleb128 0x27
 3122 01b9 19       		.uleb128 0x19
 3123 01ba 49       		.uleb128 0x49
 3124 01bb 13       		.uleb128 0x13
 3125 01bc 11       		.uleb128 0x11
 3126 01bd 01       		.uleb128 0x1
 3127 01be 12       		.uleb128 0x12
 3128 01bf 06       		.uleb128 0x6
 3129 01c0 40       		.uleb128 0x40
 3130 01c1 18       		.uleb128 0x18
 3131 01c2 9742     		.uleb128 0x2117
 3132 01c4 19       		.uleb128 0x19
 3133 01c5 01       		.uleb128 0x1
 3134 01c6 13       		.uleb128 0x13
 3135 01c7 00       		.byte	0
 3136 01c8 00       		.byte	0
 3137 01c9 24       		.uleb128 0x24
 3138 01ca 05       		.uleb128 0x5
 3139 01cb 00       		.byte	0
 3140 01cc 03       		.uleb128 0x3
 3141 01cd 0E       		.uleb128 0xe
 3142 01ce 3A       		.uleb128 0x3a
 3143 01cf 0B       		.uleb128 0xb
 3144 01d0 3B       		.uleb128 0x3b
 3145 01d1 05       		.uleb128 0x5
 3146 01d2 49       		.uleb128 0x49
 3147 01d3 13       		.uleb128 0x13
 3148 01d4 02       		.uleb128 0x2
 3149 01d5 17       		.uleb128 0x17
 3150 01d6 00       		.byte	0
 3151 01d7 00       		.byte	0
 3152 01d8 25       		.uleb128 0x25
 3153 01d9 34       		.uleb128 0x34
 3154 01da 00       		.byte	0
 3155 01db 03       		.uleb128 0x3
 3156 01dc 08       		.uleb128 0x8
 3157 01dd 3A       		.uleb128 0x3a
 3158 01de 0B       		.uleb128 0xb
 3159 01df 3B       		.uleb128 0x3b
 3160 01e0 05       		.uleb128 0x5
 3161 01e1 49       		.uleb128 0x49
 3162 01e2 13       		.uleb128 0x13
 3163 01e3 02       		.uleb128 0x2
 3164 01e4 17       		.uleb128 0x17
 3165 01e5 00       		.byte	0
 3166 01e6 00       		.byte	0
 3167 01e7 26       		.uleb128 0x26
 3168 01e8 34       		.uleb128 0x34
 3169 01e9 00       		.byte	0
 3170 01ea 03       		.uleb128 0x3
 3171 01eb 0E       		.uleb128 0xe
ARM GAS  C:\Users\owono\AppData\Local\Temp\ccFLv7mf.s 			page 95


 3172 01ec 3A       		.uleb128 0x3a
 3173 01ed 0B       		.uleb128 0xb
 3174 01ee 3B       		.uleb128 0x3b
 3175 01ef 05       		.uleb128 0x5
 3176 01f0 49       		.uleb128 0x49
 3177 01f1 13       		.uleb128 0x13
 3178 01f2 02       		.uleb128 0x2
 3179 01f3 17       		.uleb128 0x17
 3180 01f4 00       		.byte	0
 3181 01f5 00       		.byte	0
 3182 01f6 27       		.uleb128 0x27
 3183 01f7 26       		.uleb128 0x26
 3184 01f8 00       		.byte	0
 3185 01f9 49       		.uleb128 0x49
 3186 01fa 13       		.uleb128 0x13
 3187 01fb 00       		.byte	0
 3188 01fc 00       		.byte	0
 3189 01fd 28       		.uleb128 0x28
 3190 01fe 2E       		.uleb128 0x2e
 3191 01ff 01       		.byte	0x1
 3192 0200 3F       		.uleb128 0x3f
 3193 0201 19       		.uleb128 0x19
 3194 0202 03       		.uleb128 0x3
 3195 0203 0E       		.uleb128 0xe
 3196 0204 3A       		.uleb128 0x3a
 3197 0205 0B       		.uleb128 0xb
 3198 0206 3B       		.uleb128 0x3b
 3199 0207 05       		.uleb128 0x5
 3200 0208 27       		.uleb128 0x27
 3201 0209 19       		.uleb128 0x19
 3202 020a 11       		.uleb128 0x11
 3203 020b 01       		.uleb128 0x1
 3204 020c 12       		.uleb128 0x12
 3205 020d 06       		.uleb128 0x6
 3206 020e 40       		.uleb128 0x40
 3207 020f 18       		.uleb128 0x18
 3208 0210 9742     		.uleb128 0x2117
 3209 0212 19       		.uleb128 0x19
 3210 0213 01       		.uleb128 0x1
 3211 0214 13       		.uleb128 0x13
 3212 0215 00       		.byte	0
 3213 0216 00       		.byte	0
 3214 0217 29       		.uleb128 0x29
 3215 0218 0B       		.uleb128 0xb
 3216 0219 01       		.byte	0x1
 3217 021a 11       		.uleb128 0x11
 3218 021b 01       		.uleb128 0x1
 3219 021c 12       		.uleb128 0x12
 3220 021d 06       		.uleb128 0x6
 3221 021e 00       		.byte	0
 3222 021f 00       		.byte	0
 3223 0220 2A       		.uleb128 0x2a
 3224 0221 898201   		.uleb128 0x4109
 3225 0224 01       		.byte	0x1
 3226 0225 11       		.uleb128 0x11
 3227 0226 01       		.uleb128 0x1
 3228 0227 00       		.byte	0
ARM GAS  C:\Users\owono\AppData\Local\Temp\ccFLv7mf.s 			page 96


 3229 0228 00       		.byte	0
 3230 0229 2B       		.uleb128 0x2b
 3231 022a 34       		.uleb128 0x34
 3232 022b 00       		.byte	0
 3233 022c 03       		.uleb128 0x3
 3234 022d 0E       		.uleb128 0xe
 3235 022e 3A       		.uleb128 0x3a
 3236 022f 0B       		.uleb128 0xb
 3237 0230 3B       		.uleb128 0x3b
 3238 0231 05       		.uleb128 0x5
 3239 0232 49       		.uleb128 0x49
 3240 0233 13       		.uleb128 0x13
 3241 0234 3F       		.uleb128 0x3f
 3242 0235 19       		.uleb128 0x19
 3243 0236 3C       		.uleb128 0x3c
 3244 0237 19       		.uleb128 0x19
 3245 0238 00       		.byte	0
 3246 0239 00       		.byte	0
 3247 023a 2C       		.uleb128 0x2c
 3248 023b 34       		.uleb128 0x34
 3249 023c 00       		.byte	0
 3250 023d 03       		.uleb128 0x3
 3251 023e 0E       		.uleb128 0xe
 3252 023f 3A       		.uleb128 0x3a
 3253 0240 0B       		.uleb128 0xb
 3254 0241 3B       		.uleb128 0x3b
 3255 0242 0B       		.uleb128 0xb
 3256 0243 49       		.uleb128 0x49
 3257 0244 13       		.uleb128 0x13
 3258 0245 3F       		.uleb128 0x3f
 3259 0246 19       		.uleb128 0x19
 3260 0247 02       		.uleb128 0x2
 3261 0248 18       		.uleb128 0x18
 3262 0249 00       		.byte	0
 3263 024a 00       		.byte	0
 3264 024b 2D       		.uleb128 0x2d
 3265 024c 34       		.uleb128 0x34
 3266 024d 00       		.byte	0
 3267 024e 03       		.uleb128 0x3
 3268 024f 0E       		.uleb128 0xe
 3269 0250 3A       		.uleb128 0x3a
 3270 0251 0B       		.uleb128 0xb
 3271 0252 3B       		.uleb128 0x3b
 3272 0253 0B       		.uleb128 0xb
 3273 0254 49       		.uleb128 0x49
 3274 0255 13       		.uleb128 0x13
 3275 0256 3F       		.uleb128 0x3f
 3276 0257 19       		.uleb128 0x19
 3277 0258 3C       		.uleb128 0x3c
 3278 0259 19       		.uleb128 0x19
 3279 025a 00       		.byte	0
 3280 025b 00       		.byte	0
 3281 025c 2E       		.uleb128 0x2e
 3282 025d 2E       		.uleb128 0x2e
 3283 025e 00       		.byte	0
 3284 025f 3F       		.uleb128 0x3f
 3285 0260 19       		.uleb128 0x19
ARM GAS  C:\Users\owono\AppData\Local\Temp\ccFLv7mf.s 			page 97


 3286 0261 3C       		.uleb128 0x3c
 3287 0262 19       		.uleb128 0x19
 3288 0263 6E       		.uleb128 0x6e
 3289 0264 0E       		.uleb128 0xe
 3290 0265 03       		.uleb128 0x3
 3291 0266 0E       		.uleb128 0xe
 3292 0267 3A       		.uleb128 0x3a
 3293 0268 0B       		.uleb128 0xb
 3294 0269 3B       		.uleb128 0x3b
 3295 026a 05       		.uleb128 0x5
 3296 026b 00       		.byte	0
 3297 026c 00       		.byte	0
 3298 026d 2F       		.uleb128 0x2f
 3299 026e 2E       		.uleb128 0x2e
 3300 026f 00       		.byte	0
 3301 0270 3F       		.uleb128 0x3f
 3302 0271 19       		.uleb128 0x19
 3303 0272 3C       		.uleb128 0x3c
 3304 0273 19       		.uleb128 0x19
 3305 0274 6E       		.uleb128 0x6e
 3306 0275 0E       		.uleb128 0xe
 3307 0276 03       		.uleb128 0x3
 3308 0277 0E       		.uleb128 0xe
 3309 0278 3A       		.uleb128 0x3a
 3310 0279 0B       		.uleb128 0xb
 3311 027a 3B       		.uleb128 0x3b
 3312 027b 0B       		.uleb128 0xb
 3313 027c 00       		.byte	0
 3314 027d 00       		.byte	0
 3315 027e 30       		.uleb128 0x30
 3316 027f 2E       		.uleb128 0x2e
 3317 0280 00       		.byte	0
 3318 0281 3F       		.uleb128 0x3f
 3319 0282 19       		.uleb128 0x19
 3320 0283 3C       		.uleb128 0x3c
 3321 0284 19       		.uleb128 0x19
 3322 0285 6E       		.uleb128 0x6e
 3323 0286 0E       		.uleb128 0xe
 3324 0287 03       		.uleb128 0x3
 3325 0288 0E       		.uleb128 0xe
 3326 0289 00       		.byte	0
 3327 028a 00       		.byte	0
 3328 028b 00       		.byte	0
 3329              		.section	.debug_loc,"",%progbits
 3330              	.Ldebug_loc0:
 3331              	.LLST0:
 3332 0000 00000000 		.4byte	.LVL0
 3333 0004 09000000 		.4byte	.LVL1-1
 3334 0008 0100     		.2byte	0x1
 3335 000a 50       		.byte	0x50
 3336 000b 09000000 		.4byte	.LVL1-1
 3337 000f 32000000 		.4byte	.LVL7
 3338 0013 0100     		.2byte	0x1
 3339 0015 54       		.byte	0x54
 3340 0016 32000000 		.4byte	.LVL7
 3341 001a 38000000 		.4byte	.LFE2
 3342 001e 0400     		.2byte	0x4
ARM GAS  C:\Users\owono\AppData\Local\Temp\ccFLv7mf.s 			page 98


 3343 0020 F3       		.byte	0xf3
 3344 0021 01       		.uleb128 0x1
 3345 0022 50       		.byte	0x50
 3346 0023 9F       		.byte	0x9f
 3347 0024 00000000 		.4byte	0
 3348 0028 00000000 		.4byte	0
 3349              	.LLST1:
 3350 002c 0A000000 		.4byte	.LVL1
 3351 0030 24000000 		.4byte	.LVL2
 3352 0034 0100     		.2byte	0x1
 3353 0036 50       		.byte	0x50
 3354 0037 24000000 		.4byte	.LVL2
 3355 003b 27000000 		.4byte	.LVL3-1
 3356 003f 0200     		.2byte	0x2
 3357 0041 71       		.byte	0x71
 3358 0042 03       		.sleb128 3
 3359 0043 2A000000 		.4byte	.LVL4
 3360 0047 2C000000 		.4byte	.LVL5
 3361 004b 0100     		.2byte	0x1
 3362 004d 50       		.byte	0x50
 3363 004e 00000000 		.4byte	0
 3364 0052 00000000 		.4byte	0
 3365              	.LLST2:
 3366 0056 00000000 		.4byte	.LVL8
 3367 005a 08000000 		.4byte	.LVL9
 3368 005e 0100     		.2byte	0x1
 3369 0060 50       		.byte	0x50
 3370 0061 08000000 		.4byte	.LVL9
 3371 0065 0A000000 		.4byte	.LVL10
 3372 0069 0400     		.2byte	0x4
 3373 006b F3       		.byte	0xf3
 3374 006c 01       		.uleb128 0x1
 3375 006d 50       		.byte	0x50
 3376 006e 9F       		.byte	0x9f
 3377 006f 0A000000 		.4byte	.LVL10
 3378 0073 1E000000 		.4byte	.LVL15
 3379 0077 0100     		.2byte	0x1
 3380 0079 50       		.byte	0x50
 3381 007a 1E000000 		.4byte	.LVL15
 3382 007e 20000000 		.4byte	.LVL16
 3383 0082 0400     		.2byte	0x4
 3384 0084 F3       		.byte	0xf3
 3385 0085 01       		.uleb128 0x1
 3386 0086 50       		.byte	0x50
 3387 0087 9F       		.byte	0x9f
 3388 0088 20000000 		.4byte	.LVL16
 3389 008c 22000000 		.4byte	.LVL17
 3390 0090 0100     		.2byte	0x1
 3391 0092 50       		.byte	0x50
 3392 0093 22000000 		.4byte	.LVL17
 3393 0097 24000000 		.4byte	.LFE7
 3394 009b 0400     		.2byte	0x4
 3395 009d F3       		.byte	0xf3
 3396 009e 01       		.uleb128 0x1
 3397 009f 50       		.byte	0x50
 3398 00a0 9F       		.byte	0x9f
 3399 00a1 00000000 		.4byte	0
ARM GAS  C:\Users\owono\AppData\Local\Temp\ccFLv7mf.s 			page 99


 3400 00a5 00000000 		.4byte	0
 3401              	.LLST3:
 3402 00a9 0A000000 		.4byte	.LVL10
 3403 00ad 12000000 		.4byte	.LVL11
 3404 00b1 0100     		.2byte	0x1
 3405 00b3 53       		.byte	0x53
 3406 00b4 14000000 		.4byte	.LVL12
 3407 00b8 16000000 		.4byte	.LVL13
 3408 00bc 0100     		.2byte	0x1
 3409 00be 53       		.byte	0x53
 3410 00bf 18000000 		.4byte	.LVL14
 3411 00c3 22000000 		.4byte	.LVL17
 3412 00c7 0100     		.2byte	0x1
 3413 00c9 53       		.byte	0x53
 3414 00ca 00000000 		.4byte	0
 3415 00ce 00000000 		.4byte	0
 3416              	.LLST4:
 3417 00d2 00000000 		.4byte	.LVL8
 3418 00d6 22000000 		.4byte	.LVL17
 3419 00da 0200     		.2byte	0x2
 3420 00dc 30       		.byte	0x30
 3421 00dd 9F       		.byte	0x9f
 3422 00de 22000000 		.4byte	.LVL17
 3423 00e2 24000000 		.4byte	.LFE7
 3424 00e6 0100     		.2byte	0x1
 3425 00e8 50       		.byte	0x50
 3426 00e9 00000000 		.4byte	0
 3427 00ed 00000000 		.4byte	0
 3428              	.LLST5:
 3429 00f1 00000000 		.4byte	.LVL18
 3430 00f5 78000000 		.4byte	.LVL20
 3431 00f9 0100     		.2byte	0x1
 3432 00fb 50       		.byte	0x50
 3433 00fc 78000000 		.4byte	.LVL20
 3434 0100 26010000 		.4byte	.LVL35
 3435 0104 0400     		.2byte	0x4
 3436 0106 F3       		.byte	0xf3
 3437 0107 01       		.uleb128 0x1
 3438 0108 50       		.byte	0x50
 3439 0109 9F       		.byte	0x9f
 3440 010a 26010000 		.4byte	.LVL35
 3441 010e 70010000 		.4byte	.LVL38
 3442 0112 0100     		.2byte	0x1
 3443 0114 50       		.byte	0x50
 3444 0115 70010000 		.4byte	.LVL38
 3445 0119 96010000 		.4byte	.LVL41
 3446 011d 0400     		.2byte	0x4
 3447 011f F3       		.byte	0xf3
 3448 0120 01       		.uleb128 0x1
 3449 0121 50       		.byte	0x50
 3450 0122 9F       		.byte	0x9f
 3451 0123 96010000 		.4byte	.LVL41
 3452 0127 06020000 		.4byte	.LVL42
 3453 012b 0100     		.2byte	0x1
 3454 012d 50       		.byte	0x50
 3455 012e 06020000 		.4byte	.LVL42
 3456 0132 26020000 		.4byte	.LVL45
ARM GAS  C:\Users\owono\AppData\Local\Temp\ccFLv7mf.s 			page 100


 3457 0136 0400     		.2byte	0x4
 3458 0138 F3       		.byte	0xf3
 3459 0139 01       		.uleb128 0x1
 3460 013a 50       		.byte	0x50
 3461 013b 9F       		.byte	0x9f
 3462 013c 26020000 		.4byte	.LVL45
 3463 0140 29020000 		.4byte	.LVL46-1
 3464 0144 0100     		.2byte	0x1
 3465 0146 50       		.byte	0x50
 3466 0147 29020000 		.4byte	.LVL46-1
 3467 014b 2C020000 		.4byte	.LVL47
 3468 014f 0400     		.2byte	0x4
 3469 0151 F3       		.byte	0xf3
 3470 0152 01       		.uleb128 0x1
 3471 0153 50       		.byte	0x50
 3472 0154 9F       		.byte	0x9f
 3473 0155 2C020000 		.4byte	.LVL47
 3474 0159 36020000 		.4byte	.LVL49
 3475 015d 0100     		.2byte	0x1
 3476 015f 50       		.byte	0x50
 3477 0160 36020000 		.4byte	.LVL49
 3478 0164 3C020000 		.4byte	.LVL51
 3479 0168 0400     		.2byte	0x4
 3480 016a F3       		.byte	0xf3
 3481 016b 01       		.uleb128 0x1
 3482 016c 50       		.byte	0x50
 3483 016d 9F       		.byte	0x9f
 3484 016e 3C020000 		.4byte	.LVL51
 3485 0172 3E020000 		.4byte	.LVL52
 3486 0176 0100     		.2byte	0x1
 3487 0178 50       		.byte	0x50
 3488 0179 3E020000 		.4byte	.LVL52
 3489 017d 44020000 		.4byte	.LVL54
 3490 0181 0400     		.2byte	0x4
 3491 0183 F3       		.byte	0xf3
 3492 0184 01       		.uleb128 0x1
 3493 0185 50       		.byte	0x50
 3494 0186 9F       		.byte	0x9f
 3495 0187 44020000 		.4byte	.LVL54
 3496 018b 4E020000 		.4byte	.LVL55
 3497 018f 0100     		.2byte	0x1
 3498 0191 50       		.byte	0x50
 3499 0192 4E020000 		.4byte	.LVL55
 3500 0196 B8020000 		.4byte	.LFE10
 3501 019a 0400     		.2byte	0x4
 3502 019c F3       		.byte	0xf3
 3503 019d 01       		.uleb128 0x1
 3504 019e 50       		.byte	0x50
 3505 019f 9F       		.byte	0x9f
 3506 01a0 00000000 		.4byte	0
 3507 01a4 00000000 		.4byte	0
 3508              	.LLST6:
 3509 01a8 00000000 		.4byte	.LVL18
 3510 01ac 0C000000 		.4byte	.LVL19
 3511 01b0 0100     		.2byte	0x1
 3512 01b2 51       		.byte	0x51
 3513 01b3 0C000000 		.4byte	.LVL19
ARM GAS  C:\Users\owono\AppData\Local\Temp\ccFLv7mf.s 			page 101


 3514 01b7 6E020000 		.4byte	.LVL57
 3515 01bb 0100     		.2byte	0x1
 3516 01bd 55       		.byte	0x55
 3517 01be 6E020000 		.4byte	.LVL57
 3518 01c2 B8020000 		.4byte	.LFE10
 3519 01c6 0400     		.2byte	0x4
 3520 01c8 F3       		.byte	0xf3
 3521 01c9 01       		.uleb128 0x1
 3522 01ca 51       		.byte	0x51
 3523 01cb 9F       		.byte	0x9f
 3524 01cc 00000000 		.4byte	0
 3525 01d0 00000000 		.4byte	0
 3526              	.LLST7:
 3527 01d4 E8000000 		.4byte	.LVL28
 3528 01d8 F2000000 		.4byte	.LVL29
 3529 01dc 0100     		.2byte	0x1
 3530 01de 53       		.byte	0x53
 3531 01df 00000000 		.4byte	0
 3532 01e3 00000000 		.4byte	0
 3533              	.LLST8:
 3534 01e7 2E010000 		.4byte	.LVL36
 3535 01eb 56010000 		.4byte	.LVL37
 3536 01ef 0100     		.2byte	0x1
 3537 01f1 55       		.byte	0x55
 3538 01f2 00000000 		.4byte	0
 3539 01f6 00000000 		.4byte	0
 3540              	.LLST9:
 3541 01fa 34020000 		.4byte	.LVL48
 3542 01fe 39020000 		.4byte	.LVL50-1
 3543 0202 0100     		.2byte	0x1
 3544 0204 51       		.byte	0x51
 3545 0205 00000000 		.4byte	0
 3546 0209 00000000 		.4byte	0
 3547              		.section	.debug_aranges,"",%progbits
 3548 0000 34000000 		.4byte	0x34
 3549 0004 0200     		.2byte	0x2
 3550 0006 00000000 		.4byte	.Ldebug_info0
 3551 000a 04       		.byte	0x4
 3552 000b 00       		.byte	0
 3553 000c 0000     		.2byte	0
 3554 000e 0000     		.2byte	0
 3555 0010 00000000 		.4byte	.LFB4
 3556 0014 10000000 		.4byte	.LFE4-.LFB4
 3557 0018 00000000 		.4byte	.LFB2
 3558 001c 38000000 		.4byte	.LFE2-.LFB2
 3559 0020 00000000 		.4byte	.LFB7
 3560 0024 24000000 		.4byte	.LFE7-.LFB7
 3561 0028 00000000 		.4byte	.LFB10
 3562 002c B8020000 		.4byte	.LFE10-.LFB10
 3563 0030 00000000 		.4byte	0
 3564 0034 00000000 		.4byte	0
 3565              		.section	.debug_ranges,"",%progbits
 3566              	.Ldebug_ranges0:
 3567 0000 00000000 		.4byte	.LFB4
 3568 0004 10000000 		.4byte	.LFE4
 3569 0008 00000000 		.4byte	.LFB2
 3570 000c 38000000 		.4byte	.LFE2
ARM GAS  C:\Users\owono\AppData\Local\Temp\ccFLv7mf.s 			page 102


 3571 0010 00000000 		.4byte	.LFB7
 3572 0014 24000000 		.4byte	.LFE7
 3573 0018 00000000 		.4byte	.LFB10
 3574 001c B8020000 		.4byte	.LFE10
 3575 0020 00000000 		.4byte	0
 3576 0024 00000000 		.4byte	0
 3577              		.section	.debug_line,"",%progbits
 3578              	.Ldebug_line0:
 3579 0000 BB010000 		.section	.debug_str,"MS",%progbits,1
 3579      0200DE00 
 3579      00000201 
 3579      FB0E0D00 
 3579      01010101 
 3580              	.LASF323:
 3581 0000 6379426C 		.ascii	"cyBle_peerBonding\000"
 3581      655F7065 
 3581      6572426F 
 3581      6E64696E 
 3581      6700
 3582              	.LASF252:
 3583 0012 4359424C 		.ascii	"CYBLE_GATT_ERR_INVALID_CRC\000"
 3583      455F4741 
 3583      54545F45 
 3583      52525F49 
 3583      4E56414C 
 3584              	.LASF16:
 3585 002d 73697A65 		.ascii	"sizetype\000"
 3585      74797065 
 3585      00
 3586              	.LASF186:
 3587 0036 656B6579 		.ascii	"ekeySize\000"
 3587      53697A65 
 3587      00
 3588              	.LASF221:
 3589 003f 4359424C 		.ascii	"CYBLE_GATT_HANDLE_VALUE_CNF\000"
 3589      455F4741 
 3589      54545F48 
 3589      414E444C 
 3589      455F5641 
 3590              	.LASF339:
 3591 005b 4379426C 		.ascii	"CyBle_SetDeviceAddress\000"
 3591      655F5365 
 3591      74446576 
 3591      69636541 
 3591      64647265 
 3592              	.LASF37:
 3593 0072 4359424C 		.ascii	"CYBLE_EVT_GAP_NUMERIC_COMPARISON_REQUEST\000"
 3593      455F4556 
 3593      545F4741 
 3593      505F4E55 
 3593      4D455249 
 3594              	.LASF341:
 3595 009b 4379426C 		.ascii	"CyBle_GapSetIoCap\000"
 3595      655F4761 
 3595      70536574 
 3595      496F4361 
 3595      7000
ARM GAS  C:\Users\owono\AppData\Local\Temp\ccFLv7mf.s 			page 103


 3596              	.LASF314:
 3597 00ad 61706952 		.ascii	"apiResult\000"
 3597      6573756C 
 3597      7400
 3598              	.LASF346:
 3599 00b7 4379426C 		.ascii	"CyBle_WriteReqHandler\000"
 3599      655F5772 
 3599      69746552 
 3599      65714861 
 3599      6E646C65 
 3600              	.LASF143:
 3601 00cd 72657175 		.ascii	"request\000"
 3601      65737400 
 3602              	.LASF180:
 3603 00d5 4359424C 		.ascii	"CYBLE_GAP_AUTH_ERROR_CODE_SPEC_MAX_VALUE\000"
 3603      455F4741 
 3603      505F4155 
 3603      54485F45 
 3603      52524F52 
 3604              	.LASF305:
 3605 00fe 6576656E 		.ascii	"eventParam\000"
 3605      74506172 
 3605      616D00
 3606              	.LASF31:
 3607 0109 4359424C 		.ascii	"CYBLE_EVT_GAP_DEVICE_CONNECTED\000"
 3607      455F4556 
 3607      545F4741 
 3607      505F4445 
 3607      56494345 
 3608              	.LASF163:
 3609 0128 4359424C 		.ascii	"CYBLE_GAP_IOCAP_NOINPUT_NOOUTPUT\000"
 3609      455F4741 
 3609      505F494F 
 3609      4341505F 
 3609      4E4F494E 
 3610              	.LASF49:
 3611 0149 4359424C 		.ascii	"CYBLE_EVT_GATT_CONNECT_IND\000"
 3611      455F4556 
 3611      545F4741 
 3611      54545F43 
 3611      4F4E4E45 
 3612              	.LASF214:
 3613 0164 4359424C 		.ascii	"CYBLE_GATT_WRITE_CMD\000"
 3613      455F4741 
 3613      54545F57 
 3613      52495445 
 3613      5F434D44 
 3614              	.LASF11:
 3615 0179 75696E74 		.ascii	"uint32\000"
 3615      333200
 3616              	.LASF296:
 3617 0180 67617053 		.ascii	"gapServiceCharHandle\000"
 3617      65727669 
 3617      63654368 
 3617      61724861 
 3617      6E646C65 
 3618              	.LASF137:
ARM GAS  C:\Users\owono\AppData\Local\Temp\ccFLv7mf.s 			page 104


 3619 0195 626C6550 		.ascii	"blePwrLevelInDbm\000"
 3619      77724C65 
 3619      76656C49 
 3619      6E44626D 
 3619      00
 3620              	.LASF226:
 3621 01a6 4359424C 		.ascii	"CYBLE_GATT_ERR_READ_NOT_PERMITTED\000"
 3621      455F4741 
 3621      54545F45 
 3621      52525F52 
 3621      4541445F 
 3622              	.LASF241:
 3623 01c8 4359424C 		.ascii	"CYBLE_GATT_ERR_INSUFFICIENT_RESOURCE\000"
 3623      455F4741 
 3623      54545F45 
 3623      52525F49 
 3623      4E535546 
 3624              	.LASF215:
 3625 01ed 4359424C 		.ascii	"CYBLE_GATT_PREPARE_WRITE_REQ\000"
 3625      455F4741 
 3625      54545F50 
 3625      52455041 
 3625      52455F57 
 3626              	.LASF240:
 3627 020a 4359424C 		.ascii	"CYBLE_GATT_ERR_UNSUPPORTED_GROUP_TYPE\000"
 3627      455F4741 
 3627      54545F45 
 3627      52525F55 
 3627      4E535550 
 3628              	.LASF105:
 3629 0230 4359424C 		.ascii	"CYBLE_ERROR_L2CAP_CONNECTION_ENTITY_NOT_FOUND\000"
 3629      455F4552 
 3629      524F525F 
 3629      4C324341 
 3629      505F434F 
 3630              	.LASF343:
 3631 025e 47656E65 		.ascii	"Generated_Source\\PSoC4\\ble_eventHandler.c\000"
 3631      72617465 
 3631      645F536F 
 3631      75726365 
 3631      5C50536F 
 3632              	.LASF111:
 3633 0288 4359424C 		.ascii	"CYBLE_ERROR_MIC_AUTH_FAILED\000"
 3633      455F4552 
 3633      524F525F 
 3633      4D49435F 
 3633      41555448 
 3634              	.LASF69:
 3635 02a4 4359424C 		.ascii	"CYBLE_EVT_GATTS_DATA_SIGNED_CMD_REQ\000"
 3635      455F4556 
 3635      545F4741 
 3635      5454535F 
 3635      44415441 
 3636              	.LASF81:
 3637 02c8 4359424C 		.ascii	"CYBLE_EVT_L2CAP_CBFC_RX_CREDIT_IND\000"
 3637      455F4556 
 3637      545F4C32 
ARM GAS  C:\Users\owono\AppData\Local\Temp\ccFLv7mf.s 			page 105


 3637      4341505F 
 3637      43424643 
 3638              	.LASF269:
 3639 02eb 4359424C 		.ascii	"CYBLE_GATT_VALUE_T\000"
 3639      455F4741 
 3639      54545F56 
 3639      414C5545 
 3639      5F5400
 3640              	.LASF342:
 3641 02fe 474E5520 		.ascii	"GNU C11 5.4.1 20160609 (release) [ARM/embedded-5-br"
 3641      43313120 
 3641      352E342E 
 3641      31203230 
 3641      31363036 
 3642 0331 616E6368 		.ascii	"anch revision 237715] -mcpu=cortex-m0 -mthumb -g -O"
 3642      20726576 
 3642      6973696F 
 3642      6E203233 
 3642      37373135 
 3643 0364 67202D66 		.ascii	"g -ffunction-sections -ffat-lto-objects\000"
 3643      66756E63 
 3643      74696F6E 
 3643      2D736563 
 3643      74696F6E 
 3644              	.LASF312:
 3645 038c 6D656D52 		.ascii	"memReq\000"
 3645      657100
 3646              	.LASF209:
 3647 0393 4359424C 		.ascii	"CYBLE_GATT_READ_MULTIPLE_RSP\000"
 3647      455F4741 
 3647      54545F52 
 3647      4541445F 
 3647      4D554C54 
 3648              	.LASF148:
 3649 03b0 74797065 		.ascii	"type\000"
 3649      00
 3650              	.LASF154:
 3651 03b5 4359424C 		.ascii	"CYBLE_TO_REASON_CODE_T\000"
 3651      455F544F 
 3651      5F524541 
 3651      534F4E5F 
 3651      434F4445 
 3652              	.LASF242:
 3653 03cc 4359424C 		.ascii	"CYBLE_GATT_ERR_TRIGGER_CODITION_VALUE_NOT_SUPPORTED"
 3653      455F4741 
 3653      54545F45 
 3653      52525F54 
 3653      52494747 
 3654 03ff 00       		.ascii	"\000"
 3655              	.LASF181:
 3656 0400 4359424C 		.ascii	"CYBLE_GAP_AUTH_ERROR_AUTHENTICATION_TIMEOUT\000"
 3656      455F4741 
 3656      505F4155 
 3656      54485F45 
 3656      52524F52 
 3657              	.LASF173:
 3658 042c 4359424C 		.ascii	"CYBLE_GAP_AUTH_ERROR_UNSPECIFIED_REASON\000"
ARM GAS  C:\Users\owono\AppData\Local\Temp\ccFLv7mf.s 			page 106


 3658      455F4741 
 3658      505F4155 
 3658      54485F45 
 3658      52524F52 
 3659              	.LASF203:
 3660 0454 4359424C 		.ascii	"CYBLE_GATT_READ_BY_TYPE_RSP\000"
 3660      455F4741 
 3660      54545F52 
 3660      4541445F 
 3660      42595F54 
 3661              	.LASF284:
 3662 0470 4359424C 		.ascii	"CYBLE_CALLBACK_T\000"
 3662      455F4341 
 3662      4C4C4241 
 3662      434B5F54 
 3662      00
 3663              	.LASF66:
 3664 0481 4359424C 		.ascii	"CYBLE_EVT_GATTC_HANDLE_VALUE_NTF\000"
 3664      455F4556 
 3664      545F4741 
 3664      5454435F 
 3664      48414E44 
 3665              	.LASF25:
 3666 04a2 4359424C 		.ascii	"CYBLE_EVT_GAP_AUTH_REQ\000"
 3666      455F4556 
 3666      545F4741 
 3666      505F4155 
 3666      54485F52 
 3667              	.LASF267:
 3668 04b9 4359424C 		.ascii	"CYBLE_CONN_HANDLE_T\000"
 3668      455F434F 
 3668      4E4E5F48 
 3668      414E444C 
 3668      455F5400 
 3669              	.LASF100:
 3670 04cd 4359424C 		.ascii	"CYBLE_ERROR_BT_ON_NOT_COMPLETED\000"
 3670      455F4552 
 3670      524F525F 
 3670      42545F4F 
 3670      4E5F4E4F 
 3671              	.LASF160:
 3672 04ed 4359424C 		.ascii	"CYBLE_GAP_IOCAP_DISPLAY_ONLY\000"
 3672      455F4741 
 3672      505F494F 
 3672      4341505F 
 3672      44495350 
 3673              	.LASF46:
 3674 050a 4359424C 		.ascii	"CYBLE_EVT_GAP_AUTH_REQ_REPLY_ERR\000"
 3674      455F4556 
 3674      545F4741 
 3674      505F4155 
 3674      54485F52 
 3675              	.LASF126:
 3676 052b 4359424C 		.ascii	"CYBLE_LL_PWR_LVL_NEG_3_DBM\000"
 3676      455F4C4C 
 3676      5F505752 
 3676      5F4C564C 
ARM GAS  C:\Users\owono\AppData\Local\Temp\ccFLv7mf.s 			page 107


 3676      5F4E4547 
 3677              	.LASF307:
 3678 0546 61646472 		.ascii	"addressValid\000"
 3678      65737356 
 3678      616C6964 
 3678      00
 3679              	.LASF293:
 3680 0553 4359424C 		.ascii	"CYBLE_STATE_ADVERTISING\000"
 3680      455F5354 
 3680      4154455F 
 3680      41445645 
 3680      52544953 
 3681              	.LASF39:
 3682 056b 4359424C 		.ascii	"CYBLE_EVT_GAP_OOB_GENERATED_NOTIFICATION\000"
 3682      455F4556 
 3682      545F4741 
 3682      505F4F4F 
 3682      425F4745 
 3683              	.LASF333:
 3684 0594 4379426C 		.ascii	"CyBle_GattsWriteRsp\000"
 3684      655F4761 
 3684      74747357 
 3684      72697465 
 3684      52737000 
 3685              	.LASF265:
 3686 05a8 62644861 		.ascii	"bdHandle\000"
 3686      6E646C65 
 3686      00
 3687              	.LASF254:
 3688 05b1 4359424C 		.ascii	"CYBLE_GATTS_ERR_NETWORK_NOT_AVAILABLE\000"
 3688      455F4741 
 3688      5454535F 
 3688      4552525F 
 3688      4E455457 
 3689              	.LASF166:
 3690 05d7 4359424C 		.ascii	"CYBLE_GAP_AUTH_ERROR_PASSKEY_ENTRY_FAILED\000"
 3690      455F4741 
 3690      505F4155 
 3690      54485F45 
 3690      52524F52 
 3691              	.LASF257:
 3692 0601 4359424C 		.ascii	"CYBLE_GATT_ERR_ANCS_INVALID_COMMAND\000"
 3692      455F4741 
 3692      54545F45 
 3692      52525F41 
 3692      4E43535F 
 3693              	.LASF334:
 3694 0625 4379426C 		.ascii	"CyBle_SetTxPowerLevel\000"
 3694      655F5365 
 3694      74547850 
 3694      6F776572 
 3694      4C657665 
 3695              	.LASF124:
 3696 063b 4359424C 		.ascii	"CYBLE_LL_PWR_LVL_NEG_12_DBM\000"
 3696      455F4C4C 
 3696      5F505752 
 3696      5F4C564C 
ARM GAS  C:\Users\owono\AppData\Local\Temp\ccFLv7mf.s 			page 108


 3696      5F4E4547 
 3697              	.LASF197:
 3698 0657 4359424C 		.ascii	"CYBLE_GATT_XCHNG_MTU_RSP\000"
 3698      455F4741 
 3698      54545F58 
 3698      43484E47 
 3698      5F4D5455 
 3699              	.LASF62:
 3700 0670 4359424C 		.ascii	"CYBLE_EVT_GATTS_WRITE_CMD_REQ\000"
 3700      455F4556 
 3700      545F4741 
 3700      5454535F 
 3700      57524954 
 3701              	.LASF82:
 3702 068e 4359424C 		.ascii	"CYBLE_EVT_L2CAP_CBFC_TX_CREDIT_IND\000"
 3702      455F4556 
 3702      545F4C32 
 3702      4341505F 
 3702      43424643 
 3703              	.LASF4:
 3704 06b1 6C6F6E67 		.ascii	"long int\000"
 3704      20696E74 
 3704      00
 3705              	.LASF155:
 3706 06ba 4359424C 		.ascii	"CYBLE_GAP_SEC_LEVEL_1\000"
 3706      455F4741 
 3706      505F5345 
 3706      435F4C45 
 3706      56454C5F 
 3707              	.LASF156:
 3708 06d0 4359424C 		.ascii	"CYBLE_GAP_SEC_LEVEL_2\000"
 3708      455F4741 
 3708      505F5345 
 3708      435F4C45 
 3708      56454C5F 
 3709              	.LASF157:
 3710 06e6 4359424C 		.ascii	"CYBLE_GAP_SEC_LEVEL_3\000"
 3710      455F4741 
 3710      505F5345 
 3710      435F4C45 
 3710      56454C5F 
 3711              	.LASF158:
 3712 06fc 4359424C 		.ascii	"CYBLE_GAP_SEC_LEVEL_4\000"
 3712      455F4741 
 3712      505F5345 
 3712      435F4C45 
 3712      56454C5F 
 3713              	.LASF201:
 3714 0712 4359424C 		.ascii	"CYBLE_GATT_FIND_BY_TYPE_VALUE_RSP\000"
 3714      455F4741 
 3714      54545F46 
 3714      494E445F 
 3714      42595F54 
 3715              	.LASF18:
 3716 0734 4359424C 		.ascii	"CYBLE_EVT_STACK_ON\000"
 3716      455F4556 
 3716      545F5354 
ARM GAS  C:\Users\owono\AppData\Local\Temp\ccFLv7mf.s 			page 109


 3716      41434B5F 
 3716      4F4E00
 3717              	.LASF107:
 3718 0747 4359424C 		.ascii	"CYBLE_ERROR_L2CAP_PSM_NOT_IN_RANGE\000"
 3718      455F4552 
 3718      524F525F 
 3718      4C324341 
 3718      505F5053 
 3719              	.LASF319:
 3720 076a 6379426C 		.ascii	"cyBle_deviceAddress\000"
 3720      655F6465 
 3720      76696365 
 3720      41646472 
 3720      65737300 
 3721              	.LASF253:
 3722 077e 4359424C 		.ascii	"CYBLE_GATTS_ERR_HPS_INVALID_REQUEST\000"
 3722      455F4741 
 3722      5454535F 
 3722      4552525F 
 3722      4850535F 
 3723              	.LASF228:
 3724 07a2 4359424C 		.ascii	"CYBLE_GATT_ERR_INVALID_PDU\000"
 3724      455F4741 
 3724      54545F45 
 3724      52525F49 
 3724      4E56414C 
 3725              	.LASF169:
 3726 07bd 4359424C 		.ascii	"CYBLE_GAP_AUTH_ERROR_CONFIRM_VALUE_NOT_MATCH\000"
 3726      455F4741 
 3726      505F4155 
 3726      54485F45 
 3726      52524F52 
 3727              	.LASF119:
 3728 07ea 4359424C 		.ascii	"CYBLE_ERROR_CHAR_IS_NOT_DISCOVERED\000"
 3728      455F4552 
 3728      524F525F 
 3728      43484152 
 3728      5F49535F 
 3729              	.LASF272:
 3730 080d 4359424C 		.ascii	"CYBLE_GATT_HANDLE_VALUE_PAIR_T\000"
 3730      455F4741 
 3730      54545F48 
 3730      414E444C 
 3730      455F5641 
 3731              	.LASF138:
 3732 082c 626C6553 		.ascii	"bleSsChId\000"
 3732      73436849 
 3732      6400
 3733              	.LASF75:
 3734 0836 4359424C 		.ascii	"CYBLE_EVT_L2CAP_COMMAND_REJ\000"
 3734      455F4556 
 3734      545F4C32 
 3734      4341505F 
 3734      434F4D4D 
 3735              	.LASF301:
 3736 0852 7270614F 		.ascii	"rpaOnlyCharHandle\000"
 3736      6E6C7943 
ARM GAS  C:\Users\owono\AppData\Local\Temp\ccFLv7mf.s 			page 110


 3736      68617248 
 3736      616E646C 
 3736      6500
 3737              	.LASF207:
 3738 0864 4359424C 		.ascii	"CYBLE_GATT_READ_BLOB_RSP\000"
 3738      455F4741 
 3738      54545F52 
 3738      4541445F 
 3738      424C4F42 
 3739              	.LASF237:
 3740 087d 4359424C 		.ascii	"CYBLE_GATT_ERR_INVALID_ATTRIBUTE_LEN\000"
 3740      455F4741 
 3740      54545F45 
 3740      52525F49 
 3740      4E56414C 
 3741              	.LASF108:
 3742 08a2 4359424C 		.ascii	"CYBLE_ERROR_GATT_DB_INVALID_ATTR_HANDLE\000"
 3742      455F4552 
 3742      524F525F 
 3742      47415454 
 3742      5F44425F 
 3743              	.LASF0:
 3744 08ca 7369676E 		.ascii	"signed char\000"
 3744      65642063 
 3744      68617200 
 3745              	.LASF123:
 3746 08d6 4359424C 		.ascii	"CYBLE_LL_PWR_LVL_NEG_18_DBM\000"
 3746      455F4C4C 
 3746      5F505752 
 3746      5F4C564C 
 3746      5F4E4547 
 3747              	.LASF198:
 3748 08f2 4359424C 		.ascii	"CYBLE_GATT_FIND_INFO_REQ\000"
 3748      455F4741 
 3748      54545F46 
 3748      494E445F 
 3748      494E464F 
 3749              	.LASF20:
 3750 090b 4359424C 		.ascii	"CYBLE_EVT_HARDWARE_ERROR\000"
 3750      455F4556 
 3750      545F4841 
 3750      52445741 
 3750      52455F45 
 3751              	.LASF348:
 3752 0924 4379426C 		.ascii	"CyBle_EventHandler\000"
 3752      655F4576 
 3752      656E7448 
 3752      616E646C 
 3752      657200
 3753              	.LASF89:
 3754 0937 4359424C 		.ascii	"CYBLE_ERROR_OK\000"
 3754      455F4552 
 3754      524F525F 
 3754      4F4B00
 3755              	.LASF136:
 3756 0946 4359424C 		.ascii	"CYBLE_BLESS_PHY_CH_GRP_ID_T\000"
 3756      455F424C 
ARM GAS  C:\Users\owono\AppData\Local\Temp\ccFLv7mf.s 			page 111


 3756      4553535F 
 3756      5048595F 
 3756      43485F47 
 3757              	.LASF260:
 3758 0962 4359424C 		.ascii	"CYBLE_GATT_ERR_CCCD_IMPROPERLY_CONFIGURED\000"
 3758      455F4741 
 3758      54545F45 
 3758      52525F43 
 3758      4343445F 
 3759              	.LASF53:
 3760 098c 4359424C 		.ascii	"CYBLE_EVT_GATTC_READ_BY_GROUP_TYPE_RSP\000"
 3760      455F4556 
 3760      545F4741 
 3760      5454435F 
 3760      52454144 
 3761              	.LASF179:
 3762 09b3 4359424C 		.ascii	"CYBLE_GAP_AUTH_ERROR_CROSS_TRANSPORT_KEY_GEN_DER_NO"
 3762      455F4741 
 3762      505F4155 
 3762      54485F45 
 3762      52524F52 
 3763 09e6 545F414C 		.ascii	"T_ALLOWED\000"
 3763      4C4F5745 
 3763      4400
 3764              	.LASF290:
 3765 09f0 4359424C 		.ascii	"CYBLE_STATE_STOPPED\000"
 3765      455F5354 
 3765      4154455F 
 3765      53544F50 
 3765      50454400 
 3766              	.LASF281:
 3767 0a04 4359424C 		.ascii	"CYBLE_GATTS_ERR_PARAM_T\000"
 3767      455F4741 
 3767      5454535F 
 3767      4552525F 
 3767      50415241 
 3768              	.LASF1:
 3769 0a1c 756E7369 		.ascii	"unsigned char\000"
 3769      676E6564 
 3769      20636861 
 3769      7200
 3770              	.LASF52:
 3771 0a2a 4359424C 		.ascii	"CYBLE_EVT_GATTC_XCHNG_MTU_RSP\000"
 3771      455F4556 
 3771      545F4741 
 3771      5454435F 
 3771      5843484E 
 3772              	.LASF220:
 3773 0a48 4359424C 		.ascii	"CYBLE_GATT_HANDLE_VALUE_IND\000"
 3773      455F4741 
 3773      54545F48 
 3773      414E444C 
 3773      455F5641 
 3774              	.LASF43:
 3775 0a64 4359424C 		.ascii	"CYBLE_EVT_GAP_SMP_NEGOTIATED_AUTH_INFO\000"
 3775      455F4556 
 3775      545F4741 
ARM GAS  C:\Users\owono\AppData\Local\Temp\ccFLv7mf.s 			page 112


 3775      505F534D 
 3775      505F4E45 
 3776              	.LASF44:
 3777 0a8b 4359424C 		.ascii	"CYBLE_EVT_GAP_CONN_ESTB\000"
 3777      455F4556 
 3777      545F4741 
 3777      505F434F 
 3777      4E4E5F45 
 3778              	.LASF280:
 3779 0aa3 6572726F 		.ascii	"errorCode\000"
 3779      72436F64 
 3779      6500
 3780              	.LASF175:
 3781 0aad 4359424C 		.ascii	"CYBLE_GAP_AUTH_ERROR_INVALID_PARAMETERS\000"
 3781      455F4741 
 3781      505F4155 
 3781      54485F45 
 3781      52524F52 
 3782              	.LASF145:
 3783 0ad5 636F6E66 		.ascii	"configMemory\000"
 3783      69674D65 
 3783      6D6F7279 
 3783      00
 3784              	.LASF79:
 3785 0ae2 4359424C 		.ascii	"CYBLE_EVT_L2CAP_CBFC_DISCONN_CNF\000"
 3785      455F4556 
 3785      545F4C32 
 3785      4341505F 
 3785      43424643 
 3786              	.LASF56:
 3787 0b03 4359424C 		.ascii	"CYBLE_EVT_GATTC_FIND_BY_TYPE_VALUE_RSP\000"
 3787      455F4556 
 3787      545F4741 
 3787      5454435F 
 3787      46494E44 
 3788              	.LASF40:
 3789 0b2a 4359424C 		.ascii	"CYBLE_EVT_GAP_DATA_LENGTH_CHANGE\000"
 3789      455F4556 
 3789      545F4741 
 3789      505F4441 
 3789      54415F4C 
 3790              	.LASF14:
 3791 0b4b 63686172 		.ascii	"char\000"
 3791      00
 3792              	.LASF127:
 3793 0b50 4359424C 		.ascii	"CYBLE_LL_PWR_LVL_NEG_2_DBM\000"
 3793      455F4C4C 
 3793      5F505752 
 3793      5F4C564C 
 3793      5F4E4547 
 3794              	.LASF213:
 3795 0b6b 4359424C 		.ascii	"CYBLE_GATT_WRITE_RSP\000"
 3795      455F4741 
 3795      54545F57 
 3795      52495445 
 3795      5F525350 
 3796              	.LASF59:
ARM GAS  C:\Users\owono\AppData\Local\Temp\ccFLv7mf.s 			page 113


 3797 0b80 4359424C 		.ascii	"CYBLE_EVT_GATTC_READ_MULTI_RSP\000"
 3797      455F4556 
 3797      545F4741 
 3797      5454435F 
 3797      52454144 
 3798              	.LASF189:
 3799 0b9f 4359424C 		.ascii	"CYBLE_GAP_AUTH_INFO_T\000"
 3799      455F4741 
 3799      505F4155 
 3799      54485F49 
 3799      4E464F5F 
 3800              	.LASF162:
 3801 0bb5 4359424C 		.ascii	"CYBLE_GAP_IOCAP_KEYBOARD_ONLY\000"
 3801      455F4741 
 3801      505F494F 
 3801      4341505F 
 3801      4B455942 
 3802              	.LASF17:
 3803 0bd3 4359424C 		.ascii	"CYBLE_EVT_HOST_INVALID\000"
 3803      455F4556 
 3803      545F484F 
 3803      53545F49 
 3803      4E56414C 
 3804              	.LASF249:
 3805 0bea 4359424C 		.ascii	"CYBLE_GATT_ERR_MISSING_CRC\000"
 3805      455F4741 
 3805      54545F45 
 3805      52525F4D 
 3805      49535349 
 3806              	.LASF238:
 3807 0c05 4359424C 		.ascii	"CYBLE_GATT_ERR_UNLIKELY_ERROR\000"
 3807      455F4741 
 3807      54545F45 
 3807      52525F55 
 3807      4E4C494B 
 3808              	.LASF42:
 3809 0c23 4359424C 		.ascii	"CYBLE_EVT_GAPC_DIRECT_ADV_REPORT\000"
 3809      455F4556 
 3809      545F4741 
 3809      50435F44 
 3809      49524543 
 3810              	.LASF196:
 3811 0c44 4359424C 		.ascii	"CYBLE_GATT_XCNHG_MTU_REQ\000"
 3811      455F4741 
 3811      54545F58 
 3811      434E4847 
 3811      5F4D5455 
 3812              	.LASF96:
 3813 0c5d 4359424C 		.ascii	"CYBLE_ERROR_NO_DEVICE_ENTITY\000"
 3813      455F4552 
 3813      524F525F 
 3813      4E4F5F44 
 3813      45564943 
 3814              	.LASF58:
 3815 0c7a 4359424C 		.ascii	"CYBLE_EVT_GATTC_READ_BLOB_RSP\000"
 3815      455F4556 
 3815      545F4741 
ARM GAS  C:\Users\owono\AppData\Local\Temp\ccFLv7mf.s 			page 114


 3815      5454435F 
 3815      52454144 
 3816              	.LASF306:
 3817 0c98 64657669 		.ascii	"deviceAddress\000"
 3817      63654164 
 3817      64726573 
 3817      7300
 3818              	.LASF318:
 3819 0ca6 6379426C 		.ascii	"cyBle_eventHandlerFlag\000"
 3819      655F6576 
 3819      656E7448 
 3819      616E646C 
 3819      6572466C 
 3820              	.LASF65:
 3821 0cbd 4359424C 		.ascii	"CYBLE_EVT_GATTC_EXEC_WRITE_RSP\000"
 3821      455F4556 
 3821      545F4741 
 3821      5454435F 
 3821      45584543 
 3822              	.LASF243:
 3823 0cdc 4359424C 		.ascii	"CYBLE_GATT_ERR_HEART_RATE_CONTROL_POINT_NOT_SUPPORT"
 3823      455F4741 
 3823      54545F45 
 3823      52525F48 
 3823      45415254 
 3824 0d0f 454400   		.ascii	"ED\000"
 3825              	.LASF235:
 3826 0d12 4359424C 		.ascii	"CYBLE_GATT_ERR_ATTRIBUTE_NOT_LONG\000"
 3826      455F4741 
 3826      54545F45 
 3826      52525F41 
 3826      54545249 
 3827              	.LASF159:
 3828 0d34 4359424C 		.ascii	"CYBLE_GAP_SEC_LEVEL_MASK\000"
 3828      455F4741 
 3828      505F5345 
 3828      435F4C45 
 3828      56454C5F 
 3829              	.LASF344:
 3830 0d4d 433A5C55 		.ascii	"C:\\Users\\owono\\Documents\\PSoC Creator\\capsense"
 3830      73657273 
 3830      5C6F776F 
 3830      6E6F5C44 
 3830      6F63756D 
 3831 0d7b 6C65645C 		.ascii	"led\\capsenseled.cydsn\000"
 3831      63617073 
 3831      656E7365 
 3831      6C65642E 
 3831      63796473 
 3832              	.LASF70:
 3833 0d91 4359424C 		.ascii	"CYBLE_EVT_GATTC_STOP_CMD_COMPLETE\000"
 3833      455F4556 
 3833      545F4741 
 3833      5454435F 
 3833      53544F50 
 3834              	.LASF259:
 3835 0db3 4359424C 		.ascii	"CYBLE_GATT_ERR_ANCS_ACTION_FAILED\000"
ARM GAS  C:\Users\owono\AppData\Local\Temp\ccFLv7mf.s 			page 115


 3835      455F4741 
 3835      54545F45 
 3835      52525F41 
 3835      4E43535F 
 3836              	.LASF329:
 3837 0dd5 6379426C 		.ascii	"cyBle_gaps\000"
 3837      655F6761 
 3837      707300
 3838              	.LASF327:
 3839 0de0 6379426C 		.ascii	"cyBle_connHandle\000"
 3839      655F636F 
 3839      6E6E4861 
 3839      6E646C65 
 3839      00
 3840              	.LASF195:
 3841 0df1 4359424C 		.ascii	"CYBLE_GATT_ERROR_RSP\000"
 3841      455F4741 
 3841      54545F45 
 3841      52524F52 
 3841      5F525350 
 3842              	.LASF115:
 3843 0e06 4359424C 		.ascii	"CYBLE_ERROR_CONTROLLER_BUSY\000"
 3843      455F4552 
 3843      524F525F 
 3843      434F4E54 
 3843      524F4C4C 
 3844              	.LASF90:
 3845 0e22 4359424C 		.ascii	"CYBLE_ERROR_INVALID_PARAMETER\000"
 3845      455F4552 
 3845      524F525F 
 3845      494E5641 
 3845      4C49445F 
 3846              	.LASF288:
 3847 0e40 626F756E 		.ascii	"boundedDevCount\000"
 3847      64656444 
 3847      6576436F 
 3847      756E7400 
 3848              	.LASF178:
 3849 0e50 4359424C 		.ascii	"CYBLE_GAP_AUTH_ERROR_BR_EDR_PAIRING_IN_PROGRESS\000"
 3849      455F4741 
 3849      505F4155 
 3849      54485F45 
 3849      52524F52 
 3850              	.LASF92:
 3851 0e80 4359424C 		.ascii	"CYBLE_ERROR_MEMORY_ALLOCATION_FAILED\000"
 3851      455F4552 
 3851      524F525F 
 3851      4D454D4F 
 3851      52595F41 
 3852              	.LASF277:
 3853 0ea5 70726570 		.ascii	"prepareWriteQueueSize\000"
 3853      61726557 
 3853      72697465 
 3853      51756575 
 3853      6553697A 
 3854              	.LASF320:
 3855 0ebb 6379426C 		.ascii	"cyBle_sflashDeviceAddress\000"
ARM GAS  C:\Users\owono\AppData\Local\Temp\ccFLv7mf.s 			page 116


 3855      655F7366 
 3855      6C617368 
 3855      44657669 
 3855      63654164 
 3856              	.LASF286:
 3857 0ed5 61747456 		.ascii	"attValuesCCCDFlashMemory\000"
 3857      616C7565 
 3857      73434343 
 3857      44466C61 
 3857      73684D65 
 3858              	.LASF222:
 3859 0eee 4359424C 		.ascii	"CYBLE_GATT_SIGNED_WRITE_CMD\000"
 3859      455F4741 
 3859      54545F53 
 3859      49474E45 
 3859      445F5752 
 3860              	.LASF250:
 3861 0f0a 4359424C 		.ascii	"CYBLE_GATTS_ERR_CCCD_IMPROPERLY_CONFIGURED\000"
 3861      455F4741 
 3861      5454535F 
 3861      4552525F 
 3861      43434344 
 3862              	.LASF338:
 3863 0f35 4379426C 		.ascii	"CyBle_GattsExchangeMtuRsp\000"
 3863      655F4761 
 3863      74747345 
 3863      78636861 
 3863      6E67654D 
 3864              	.LASF218:
 3865 0f4f 4359424C 		.ascii	"CYBLE_GATT_EXECUTE_WRITE_RSP\000"
 3865      455F4741 
 3865      54545F45 
 3865      58454355 
 3865      54455F57 
 3866              	.LASF116:
 3867 0f6c 4359424C 		.ascii	"CYBLE_ERROR_MAX\000"
 3867      455F4552 
 3867      524F525F 
 3867      4D415800 
 3868              	.LASF74:
 3869 0f7c 4359424C 		.ascii	"CYBLE_EVT_L2CAP_CONN_PARAM_UPDATE_RSP\000"
 3869      455F4556 
 3869      545F4C32 
 3869      4341505F 
 3869      434F4E4E 
 3870              	.LASF182:
 3871 0fa2 4359424C 		.ascii	"CYBLE_GAP_AUTH_ERROR_LINK_DISCONNECTED\000"
 3871      455F4741 
 3871      505F4155 
 3871      54485F45 
 3871      52524F52 
 3872              	.LASF86:
 3873 0fc9 4359424C 		.ascii	"CYBLE_EVT_HCI_PKT\000"
 3873      455F4556 
 3873      545F4843 
 3873      495F504B 
 3873      5400
ARM GAS  C:\Users\owono\AppData\Local\Temp\ccFLv7mf.s 			page 117


 3874              	.LASF285:
 3875 0fdb 73746163 		.ascii	"stackFlashptr\000"
 3875      6B466C61 
 3875      73687074 
 3875      7200
 3876              	.LASF244:
 3877 0fe9 4359424C 		.ascii	"CYBLE_GATT_ERR_USER_DATA_ACCESS_NOT_PERMITTED\000"
 3877      455F4741 
 3877      54545F45 
 3877      52525F55 
 3877      5345525F 
 3878              	.LASF28:
 3879 1017 4359424C 		.ascii	"CYBLE_EVT_GAP_AUTH_COMPLETE\000"
 3879      455F4556 
 3879      545F4741 
 3879      505F4155 
 3879      54485F43 
 3880              	.LASF29:
 3881 1033 4359424C 		.ascii	"CYBLE_EVT_GAP_AUTH_FAILED\000"
 3881      455F4556 
 3881      545F4741 
 3881      505F4155 
 3881      54485F46 
 3882              	.LASF144:
 3883 104d 616C6C6F 		.ascii	"allocFree\000"
 3883      63467265 
 3883      6500
 3884              	.LASF121:
 3885 1057 4359424C 		.ascii	"CYBLE_ERROR_STACK_BUSY\000"
 3885      455F4552 
 3885      524F525F 
 3885      53544143 
 3885      4B5F4255 
 3886              	.LASF211:
 3887 106e 4359424C 		.ascii	"CYBLE_GATT_READ_BY_GROUP_RSP\000"
 3887      455F4741 
 3887      54545F52 
 3887      4541445F 
 3887      42595F47 
 3888              	.LASF93:
 3889 108b 4359424C 		.ascii	"CYBLE_ERROR_INSUFFICIENT_RESOURCES\000"
 3889      455F4552 
 3889      524F525F 
 3889      494E5355 
 3889      46464943 
 3890              	.LASF248:
 3891 10ae 4359424C 		.ascii	"CYBLE_GATT_ERR_OP_CODE_NOT_SUPPORTED\000"
 3891      455F4741 
 3891      54545F45 
 3891      52525F4F 
 3891      505F434F 
 3892              	.LASF130:
 3893 10d3 4359424C 		.ascii	"CYBLE_LL_PWR_LVL_3_DBM\000"
 3893      455F4C4C 
 3893      5F505752 
 3893      5F4C564C 
 3893      5F335F44 
ARM GAS  C:\Users\owono\AppData\Local\Temp\ccFLv7mf.s 			page 118


 3894              	.LASF5:
 3895 10ea 6C6F6E67 		.ascii	"long unsigned int\000"
 3895      20756E73 
 3895      69676E65 
 3895      6420696E 
 3895      7400
 3896              	.LASF204:
 3897 10fc 4359424C 		.ascii	"CYBLE_GATT_READ_REQ\000"
 3897      455F4741 
 3897      54545F52 
 3897      4541445F 
 3897      52455100 
 3898              	.LASF190:
 3899 1110 73746174 		.ascii	"status\000"
 3899      757300
 3900              	.LASF128:
 3901 1117 4359424C 		.ascii	"CYBLE_LL_PWR_LVL_NEG_1_DBM\000"
 3901      455F4C4C 
 3901      5F505752 
 3901      5F4C564C 
 3901      5F4E4547 
 3902              	.LASF113:
 3903 1132 4359424C 		.ascii	"CYBLE_ERROR_UNSUPPORTED_FEATURE_OR_PARAMETER_VALUE\000"
 3903      455F4552 
 3903      524F525F 
 3903      554E5355 
 3903      50504F52 
 3904              	.LASF141:
 3905 1165 4359424C 		.ascii	"CYBLE_INVALID_REQUEST\000"
 3905      455F494E 
 3905      56414C49 
 3905      445F5245 
 3905      51554553 
 3906              	.LASF172:
 3907 117b 4359424C 		.ascii	"CYBLE_GAP_AUTH_ERROR_COMMAND_NOT_SUPPORTED\000"
 3907      455F4741 
 3907      505F4155 
 3907      54485F45 
 3907      52524F52 
 3908              	.LASF168:
 3909 11a6 4359424C 		.ascii	"CYBLE_GAP_AUTH_ERROR_AUTHENTICATION_REQ_NOT_MET\000"
 3909      455F4741 
 3909      505F4155 
 3909      54485F45 
 3909      52524F52 
 3910              	.LASF219:
 3911 11d6 4359424C 		.ascii	"CYBLE_GATT_HANDLE_VALUE_NTF\000"
 3911      455F4741 
 3911      54545F48 
 3911      414E444C 
 3911      455F5641 
 3912              	.LASF103:
 3913 11f2 4359424C 		.ascii	"CYBLE_ERROR_L2CAP_PSM_ALREADY_REGISTERED\000"
 3913      455F4552 
 3913      524F525F 
 3913      4C324341 
 3913      505F5053 
ARM GAS  C:\Users\owono\AppData\Local\Temp\ccFLv7mf.s 			page 119


 3914              	.LASF256:
 3915 121b 4359424C 		.ascii	"CYBLE_GATT_ERR_ANCS_UNKNOWN_COMMAND\000"
 3915      455F4741 
 3915      54545F45 
 3915      52525F41 
 3915      4E43535F 
 3916              	.LASF278:
 3917 123f 4359424C 		.ascii	"CYBLE_PREPARE_WRITE_REQUEST_MEMORY_T\000"
 3917      455F5052 
 3917      45504152 
 3917      455F5752 
 3917      4954455F 
 3918              	.LASF34:
 3919 1264 4359424C 		.ascii	"CYBLE_EVT_GAP_CONNECTION_UPDATE_COMPLETE\000"
 3919      455F4556 
 3919      545F4741 
 3919      505F434F 
 3919      4E4E4543 
 3920              	.LASF328:
 3921 128d 6379426C 		.ascii	"cyBle_busyStatus\000"
 3921      655F6275 
 3921      73795374 
 3921      61747573 
 3921      00
 3922              	.LASF340:
 3923 129e 4379426C 		.ascii	"CyBle_ChangeAdDeviceAddress\000"
 3923      655F4368 
 3923      616E6765 
 3923      41644465 
 3923      76696365 
 3924              	.LASF291:
 3925 12ba 4359424C 		.ascii	"CYBLE_STATE_INITIALIZING\000"
 3925      455F5354 
 3925      4154455F 
 3925      494E4954 
 3925      49414C49 
 3926              	.LASF315:
 3927 12d3 6379426C 		.ascii	"cyBle_mtuSize\000"
 3927      655F6D74 
 3927      7553697A 
 3927      6500
 3928              	.LASF174:
 3929 12e1 4359424C 		.ascii	"CYBLE_GAP_AUTH_ERROR_REPEATED_ATTEMPTS\000"
 3929      455F4741 
 3929      505F4155 
 3929      54485F45 
 3929      52524F52 
 3930              	.LASF78:
 3931 1308 4359424C 		.ascii	"CYBLE_EVT_L2CAP_CBFC_DISCONN_IND\000"
 3931      455F4556 
 3931      545F4C32 
 3931      4341505F 
 3931      43424643 
 3932              	.LASF26:
 3933 1329 4359424C 		.ascii	"CYBLE_EVT_GAP_PASSKEY_ENTRY_REQUEST\000"
 3933      455F4556 
 3933      545F4741 
ARM GAS  C:\Users\owono\AppData\Local\Temp\ccFLv7mf.s 			page 120


 3933      505F5041 
 3933      53534B45 
 3934              	.LASF176:
 3935 134d 4359424C 		.ascii	"CYBLE_GAP_AUTH_ERROR_DHKEY_CHECK_FAILED\000"
 3935      455F4741 
 3935      505F4155 
 3935      54485F45 
 3935      52524F52 
 3936              	.LASF132:
 3937 1375 4359424C 		.ascii	"CYBLE_BLESS_PWR_LVL_T\000"
 3937      455F424C 
 3937      4553535F 
 3937      5057525F 
 3937      4C564C5F 
 3938              	.LASF289:
 3939 138b 43595F42 		.ascii	"CY_BLE_FLASH_STORAGE\000"
 3939      4C455F46 
 3939      4C415348 
 3939      5F53544F 
 3939      52414745 
 3940              	.LASF325:
 3941 13a0 6379426C 		.ascii	"cyBle_flashStorage\000"
 3941      655F666C 
 3941      61736853 
 3941      746F7261 
 3941      676500
 3942              	.LASF337:
 3943 13b3 4379426C 		.ascii	"CyBle_GappAuthReqReply\000"
 3943      655F4761 
 3943      70704175 
 3943      74685265 
 3943      71526570 
 3944              	.LASF171:
 3945 13ca 4359424C 		.ascii	"CYBLE_GAP_AUTH_ERROR_INSUFFICIENT_ENCRYPTION_KEY_SI"
 3945      455F4741 
 3945      505F4155 
 3945      54485F45 
 3945      52524F52 
 3946 13fd 5A4500   		.ascii	"ZE\000"
 3947              	.LASF336:
 3948 1400 4379426C 		.ascii	"CyBle_GapSetLeEventMask\000"
 3948      655F4761 
 3948      70536574 
 3948      4C654576 
 3948      656E744D 
 3949              	.LASF6:
 3950 1418 6C6F6E67 		.ascii	"long long int\000"
 3950      206C6F6E 
 3950      6720696E 
 3950      7400
 3951              	.LASF345:
 3952 1426 4379426C 		.ascii	"CyBle_GattDisconnectEventHandler\000"
 3952      655F4761 
 3952      74744469 
 3952      73636F6E 
 3952      6E656374 
 3953              	.LASF146:
ARM GAS  C:\Users\owono\AppData\Local\Temp\ccFLv7mf.s 			page 121


 3954 1447 4359424C 		.ascii	"CYBLE_MEMORY_REQUEST_T\000"
 3954      455F4D45 
 3954      4D4F5259 
 3954      5F524551 
 3954      55455354 
 3955              	.LASF184:
 3956 145e 73656375 		.ascii	"security\000"
 3956      72697479 
 3956      00
 3957              	.LASF233:
 3958 1467 4359424C 		.ascii	"CYBLE_GATT_ERR_PREPARE_WRITE_QUEUE_FULL\000"
 3958      455F4741 
 3958      54545F45 
 3958      52525F50 
 3958      52455041 
 3959              	.LASF104:
 3960 148f 4359424C 		.ascii	"CYBLE_ERROR_L2CAP_PSM_NOT_REGISTERED\000"
 3960      455F4552 
 3960      524F525F 
 3960      4C324341 
 3960      505F5053 
 3961              	.LASF94:
 3962 14b4 4359424C 		.ascii	"CYBLE_ERROR_OOB_NOT_AVAILABLE\000"
 3962      455F4552 
 3962      524F525F 
 3962      4F4F425F 
 3962      4E4F545F 
 3963              	.LASF13:
 3964 14d2 646F7562 		.ascii	"double\000"
 3964      6C6500
 3965              	.LASF109:
 3966 14d9 4359424C 		.ascii	"CYBLE_ERROR_DEVICE_ALREADY_EXISTS\000"
 3966      455F4552 
 3966      524F525F 
 3966      44455649 
 3966      43455F41 
 3967              	.LASF84:
 3968 14fb 4359424C 		.ascii	"CYBLE_EVT_PENDING_FLASH_WRITE\000"
 3968      455F4556 
 3968      545F5045 
 3968      4E44494E 
 3968      475F464C 
 3969              	.LASF236:
 3970 1519 4359424C 		.ascii	"CYBLE_GATT_ERR_INSUFFICIENT_ENC_KEY_SIZE\000"
 3970      455F4741 
 3970      54545F45 
 3970      52525F49 
 3970      4E535546 
 3971              	.LASF131:
 3972 1542 4359424C 		.ascii	"CYBLE_LL_PWR_LVL_MAX\000"
 3972      455F4C4C 
 3972      5F505752 
 3972      5F4C564C 
 3972      5F4D4158 
 3973              	.LASF297:
 3974 1557 64657669 		.ascii	"deviceNameCharHandle\000"
 3974      63654E61 
ARM GAS  C:\Users\owono\AppData\Local\Temp\ccFLv7mf.s 			page 122


 3974      6D654368 
 3974      61724861 
 3974      6E646C65 
 3975              	.LASF261:
 3976 156c 4359424C 		.ascii	"CYBLE_GATT_ERR_PROCEDURE_ALREADY_IN_PROGRESS\000"
 3976      455F4741 
 3976      54545F45 
 3976      52525F50 
 3976      524F4345 
 3977              	.LASF41:
 3978 1599 4359424C 		.ascii	"CYBLE_EVT_GAP_ENHANCE_CONN_COMPLETE\000"
 3978      455F4556 
 3978      545F4741 
 3978      505F454E 
 3978      48414E43 
 3979              	.LASF106:
 3980 15bd 4359424C 		.ascii	"CYBLE_ERROR_L2CAP_CHANNEL_NOT_FOUND\000"
 3980      455F4552 
 3980      524F525F 
 3980      4C324341 
 3980      505F4348 
 3981              	.LASF97:
 3982 15e1 4359424C 		.ascii	"CYBLE_ERROR_REPEATED_ATTEMPTS\000"
 3982      455F4552 
 3982      524F525F 
 3982      52455045 
 3982      41544544 
 3983              	.LASF12:
 3984 15ff 666C6F61 		.ascii	"float\000"
 3984      7400
 3985              	.LASF110:
 3986 1605 4359424C 		.ascii	"CYBLE_ERROR_FLASH_WRITE_NOT_PERMITED\000"
 3986      455F4552 
 3986      524F525F 
 3986      464C4153 
 3986      485F5752 
 3987              	.LASF71:
 3988 162a 4359424C 		.ascii	"CYBLE_EVT_GATTS_READ_CHAR_VAL_ACCESS_REQ\000"
 3988      455F4556 
 3988      545F4741 
 3988      5454535F 
 3988      52454144 
 3989              	.LASF279:
 3990 1653 6F70636F 		.ascii	"opcode\000"
 3990      646500
 3991              	.LASF232:
 3992 165a 4359424C 		.ascii	"CYBLE_GATT_ERR_INSUFFICIENT_AUTHORIZATION\000"
 3992      455F4741 
 3992      54545F45 
 3992      52525F49 
 3992      4E535546 
 3993              	.LASF271:
 3994 1684 61747472 		.ascii	"attrHandle\000"
 3994      48616E64 
 3994      6C6500
 3995              	.LASF185:
 3996 168f 626F6E64 		.ascii	"bonding\000"
ARM GAS  C:\Users\owono\AppData\Local\Temp\ccFLv7mf.s 			page 123


 3996      696E6700 
 3997              	.LASF283:
 3998 1697 4359424C 		.ascii	"CYBLE_GATTS_WRITE_REQ_PARAM_T\000"
 3998      455F4741 
 3998      5454535F 
 3998      57524954 
 3998      455F5245 
 3999              	.LASF8:
 4000 16b5 756E7369 		.ascii	"unsigned int\000"
 4000      676E6564 
 4000      20696E74 
 4000      00
 4001              	.LASF63:
 4002 16c2 4359424C 		.ascii	"CYBLE_EVT_GATTS_PREP_WRITE_REQ\000"
 4002      455F4556 
 4002      545F4741 
 4002      5454535F 
 4002      50524550 
 4003              	.LASF229:
 4004 16e1 4359424C 		.ascii	"CYBLE_GATT_ERR_INSUFFICIENT_AUTHENTICATION\000"
 4004      455F4741 
 4004      54545F45 
 4004      52525F49 
 4004      4E535546 
 4005              	.LASF274:
 4006 170c 4359424C 		.ascii	"CYBLE_GATT_XCHG_MTU_PARAM_T\000"
 4006      455F4741 
 4006      54545F58 
 4006      4348475F 
 4006      4D54555F 
 4007              	.LASF134:
 4008 1728 4359424C 		.ascii	"CYBLE_LL_CONN_CH_TYPE\000"
 4008      455F4C4C 
 4008      5F434F4E 
 4008      4E5F4348 
 4008      5F545950 
 4009              	.LASF332:
 4010 173e 4379426C 		.ascii	"CyBle_GattsWriteEventHandler\000"
 4010      655F4761 
 4010      74747357 
 4010      72697465 
 4010      4576656E 
 4011              	.LASF247:
 4012 175b 4359424C 		.ascii	"CYBLE_GATTS_ERR_PROCEDURE_ALREADY_IN_PROGRESS\000"
 4012      455F4741 
 4012      5454535F 
 4012      4552525F 
 4012      50524F43 
 4013              	.LASF304:
 4014 1789 6572725F 		.ascii	"err_param\000"
 4014      70617261 
 4014      6D00
 4015              	.LASF102:
 4016 1793 4359424C 		.ascii	"CYBLE_ERROR_L2CAP_PSM_WRONG_ENCODING\000"
 4016      455F4552 
 4016      524F525F 
 4016      4C324341 
ARM GAS  C:\Users\owono\AppData\Local\Temp\ccFLv7mf.s 			page 124


 4016      505F5053 
 4017              	.LASF216:
 4018 17b8 4359424C 		.ascii	"CYBLE_GATT_PREPARE_WRITE_RSP\000"
 4018      455F4741 
 4018      54545F50 
 4018      52455041 
 4018      52455F57 
 4019              	.LASF313:
 4020 17d5 67507265 		.ascii	"gPrepWriteReqMem\000"
 4020      70577269 
 4020      74655265 
 4020      714D656D 
 4020      00
 4021              	.LASF234:
 4022 17e6 4359424C 		.ascii	"CYBLE_GATT_ERR_ATTRIBUTE_NOT_FOUND\000"
 4022      455F4741 
 4022      54545F45 
 4022      52525F41 
 4022      54545249 
 4023              	.LASF88:
 4024 1809 4359424C 		.ascii	"CYBLE_EVT_MAX\000"
 4024      455F4556 
 4024      545F4D41 
 4024      5800
 4025              	.LASF35:
 4026 1817 4359424C 		.ascii	"CYBLE_EVT_GAPC_SCAN_START_STOP\000"
 4026      455F4556 
 4026      545F4741 
 4026      50435F53 
 4026      43414E5F 
 4027              	.LASF347:
 4028 1836 4379426C 		.ascii	"CyBle_IsDeviceAddressValid\000"
 4028      655F4973 
 4028      44657669 
 4028      63654164 
 4028      64726573 
 4029              	.LASF183:
 4030 1851 4359424C 		.ascii	"CYBLE_GAP_AUTH_FAILED_REASON_T\000"
 4030      455F4741 
 4030      505F4155 
 4030      54485F46 
 4030      41494C45 
 4031              	.LASF60:
 4032 1870 4359424C 		.ascii	"CYBLE_EVT_GATTS_WRITE_REQ\000"
 4032      455F4556 
 4032      545F4741 
 4032      5454535F 
 4032      57524954 
 4033              	.LASF299:
 4034 188a 70726566 		.ascii	"prefConnParamCharHandle\000"
 4034      436F6E6E 
 4034      50617261 
 4034      6D436861 
 4034      7248616E 
 4035              	.LASF27:
 4036 18a2 4359424C 		.ascii	"CYBLE_EVT_GAP_PASSKEY_DISPLAY_REQUEST\000"
 4036      455F4556 
ARM GAS  C:\Users\owono\AppData\Local\Temp\ccFLv7mf.s 			page 125


 4036      545F4741 
 4036      505F5041 
 4036      53534B45 
 4037              	.LASF118:
 4038 18c8 4359424C 		.ascii	"CYBLE_ERROR_IND_DISABLED\000"
 4038      455F4552 
 4038      524F525F 
 4038      494E445F 
 4038      44495341 
 4039              	.LASF117:
 4040 18e1 4359424C 		.ascii	"CYBLE_ERROR_NTF_DISABLED\000"
 4040      455F4552 
 4040      524F525F 
 4040      4E54465F 
 4040      44495341 
 4041              	.LASF208:
 4042 18fa 4359424C 		.ascii	"CYBLE_GATT_READ_MULTIPLE_REQ\000"
 4042      455F4741 
 4042      54545F52 
 4042      4541445F 
 4042      4D554C54 
 4043              	.LASF57:
 4044 1917 4359424C 		.ascii	"CYBLE_EVT_GATTC_READ_RSP\000"
 4044      455F4556 
 4044      545F4741 
 4044      5454435F 
 4044      52454144 
 4045              	.LASF231:
 4046 1930 4359424C 		.ascii	"CYBLE_GATT_ERR_INVALID_OFFSET\000"
 4046      455F4741 
 4046      54545F45 
 4046      52525F49 
 4046      4E56414C 
 4047              	.LASF202:
 4048 194e 4359424C 		.ascii	"CYBLE_GATT_READ_BY_TYPE_REQ\000"
 4048      455F4741 
 4048      54545F52 
 4048      4541445F 
 4048      42595F54 
 4049              	.LASF77:
 4050 196a 4359424C 		.ascii	"CYBLE_EVT_L2CAP_CBFC_CONN_CNF\000"
 4050      455F4556 
 4050      545F4C32 
 4050      4341505F 
 4050      43424643 
 4051              	.LASF262:
 4052 1988 4359424C 		.ascii	"CYBLE_GATT_ERR_OUT_OF_RANGE\000"
 4052      455F4741 
 4052      54545F45 
 4052      52525F4F 
 4052      55545F4F 
 4053              	.LASF87:
 4054 19a4 4359424C 		.ascii	"CYBLE_EVT_FLASH_CORRUPT\000"
 4054      455F4556 
 4054      545F464C 
 4054      4153485F 
 4054      434F5252 
ARM GAS  C:\Users\owono\AppData\Local\Temp\ccFLv7mf.s 			page 126


 4055              	.LASF15:
 4056 19bc 6C6F6E67 		.ascii	"long double\000"
 4056      20646F75 
 4056      626C6500 
 4057              	.LASF200:
 4058 19c8 4359424C 		.ascii	"CYBLE_GATT_FIND_BY_TYPE_VALUE_REQ\000"
 4058      455F4741 
 4058      54545F46 
 4058      494E445F 
 4058      42595F54 
 4059              	.LASF125:
 4060 19ea 4359424C 		.ascii	"CYBLE_LL_PWR_LVL_NEG_6_DBM\000"
 4060      455F4C4C 
 4060      5F505752 
 4060      5F4C564C 
 4060      5F4E4547 
 4061              	.LASF23:
 4062 1a05 4359424C 		.ascii	"CYBLE_EVT_MEMORY_REQUEST\000"
 4062      455F4556 
 4062      545F4D45 
 4062      4D4F5259 
 4062      5F524551 
 4063              	.LASF298:
 4064 1a1e 61707065 		.ascii	"appearanceCharHandle\000"
 4064      6172616E 
 4064      63654368 
 4064      61724861 
 4064      6E646C65 
 4065              	.LASF165:
 4066 1a33 4359424C 		.ascii	"CYBLE_GAP_AUTH_ERROR_NONE\000"
 4066      455F4741 
 4066      505F4155 
 4066      54485F45 
 4066      52524F52 
 4067              	.LASF33:
 4068 1a4d 4359424C 		.ascii	"CYBLE_EVT_GAP_ENCRYPT_CHANGE\000"
 4068      455F4556 
 4068      545F4741 
 4068      505F454E 
 4068      43525950 
 4069              	.LASF275:
 4070 1a6a 71756575 		.ascii	"queueBuffer\000"
 4070      65427566 
 4070      66657200 
 4071              	.LASF51:
 4072 1a76 4359424C 		.ascii	"CYBLE_EVT_GATTS_XCNHG_MTU_REQ\000"
 4072      455F4556 
 4072      545F4741 
 4072      5454535F 
 4072      58434E48 
 4073              	.LASF199:
 4074 1a94 4359424C 		.ascii	"CYBLE_GATT_FIND_INFO_RSP\000"
 4074      455F4741 
 4074      54545F46 
 4074      494E445F 
 4074      494E464F 
 4075              	.LASF167:
ARM GAS  C:\Users\owono\AppData\Local\Temp\ccFLv7mf.s 			page 127


 4076 1aad 4359424C 		.ascii	"CYBLE_GAP_AUTH_ERROR_OOB_DATA_NOT_AVAILABLE\000"
 4076      455F4741 
 4076      505F4155 
 4076      54485F45 
 4076      52524F52 
 4077              	.LASF47:
 4078 1ad9 4359424C 		.ascii	"CYBLE_EVT_GAP_SMP_LOC_P256_KEYS_GEN_AND_SET_COMPLET"
 4078      455F4556 
 4078      545F4741 
 4078      505F534D 
 4078      505F4C4F 
 4079 1b0c 4500     		.ascii	"E\000"
 4080              	.LASF140:
 4081 1b0e 4359424C 		.ascii	"CYBLE_PREPARED_WRITE_REQUEST\000"
 4081      455F5052 
 4081      45504152 
 4081      45445F57 
 4081      52495445 
 4082              	.LASF194:
 4083 1b2b 4359424C 		.ascii	"CYBLE_GAP_CONN_PARAM_UPDATED_IN_CONTROLLER_T\000"
 4083      455F4741 
 4083      505F434F 
 4083      4E4E5F50 
 4083      4152414D 
 4084              	.LASF7:
 4085 1b58 6C6F6E67 		.ascii	"long long unsigned int\000"
 4085      206C6F6E 
 4085      6720756E 
 4085      7369676E 
 4085      65642069 
 4086              	.LASF225:
 4087 1b6f 4359424C 		.ascii	"CYBLE_GATT_ERR_INVALID_HANDLE\000"
 4087      455F4741 
 4087      54545F45 
 4087      52525F49 
 4087      4E56414C 
 4088              	.LASF19:
 4089 1b8d 4359424C 		.ascii	"CYBLE_EVT_TIMEOUT\000"
 4089      455F4556 
 4089      545F5449 
 4089      4D454F55 
 4089      5400
 4090              	.LASF223:
 4091 1b9f 4359424C 		.ascii	"CYBLE_GATT_UNKNOWN_PDU_IND\000"
 4091      455F4741 
 4091      54545F55 
 4091      4E4B4E4F 
 4091      574E5F50 
 4092              	.LASF120:
 4093 1bba 4359424C 		.ascii	"CYBLE_ERROR_INVALID_STATE\000"
 4093      455F4552 
 4093      524F525F 
 4093      494E5641 
 4093      4C49445F 
 4094              	.LASF264:
 4095 1bd4 4359424C 		.ascii	"CYBLE_GATT_DB_ATTR_HANDLE_T\000"
 4095      455F4741 
ARM GAS  C:\Users\owono\AppData\Local\Temp\ccFLv7mf.s 			page 128


 4095      54545F44 
 4095      425F4154 
 4095      54525F48 
 4096              	.LASF309:
 4097 1bf0 626C6553 		.ascii	"bleSsPowerLevel\000"
 4097      73506F77 
 4097      65724C65 
 4097      76656C00 
 4098              	.LASF80:
 4099 1c00 4359424C 		.ascii	"CYBLE_EVT_L2CAP_CBFC_DATA_READ\000"
 4099      455F4556 
 4099      545F4C32 
 4099      4341505F 
 4099      43424643 
 4100              	.LASF224:
 4101 1c1f 4359424C 		.ascii	"CYBLE_GATT_ERR_NONE\000"
 4101      455F4741 
 4101      54545F45 
 4101      52525F4E 
 4101      4F4E4500 
 4102              	.LASF270:
 4103 1c33 76616C75 		.ascii	"value\000"
 4103      6500
 4104              	.LASF276:
 4105 1c39 746F7461 		.ascii	"totalAttrValueLength\000"
 4105      6C417474 
 4105      7256616C 
 4105      75654C65 
 4105      6E677468 
 4106              	.LASF316:
 4107 1c4e 4379426C 		.ascii	"CyBle_ApplCallback\000"
 4107      655F4170 
 4107      706C4361 
 4107      6C6C6261 
 4107      636B00
 4108              	.LASF114:
 4109 1c61 4359424C 		.ascii	"CYBLE_ERROR_FLASH_WRITE\000"
 4109      455F4552 
 4109      524F525F 
 4109      464C4153 
 4109      485F5752 
 4110              	.LASF151:
 4111 1c79 4359424C 		.ascii	"CYBLE_GAP_SCAN_TO\000"
 4111      455F4741 
 4111      505F5343 
 4111      414E5F54 
 4111      4F00
 4112              	.LASF246:
 4113 1c8b 4359424C 		.ascii	"CYBLE_GATT_ERR_HTS_OUT_OF_RANGE\000"
 4113      455F4741 
 4113      54545F45 
 4113      52525F48 
 4113      54535F4F 
 4114              	.LASF302:
 4115 1cab 4359424C 		.ascii	"CYBLE_GAPS_T\000"
 4115      455F4741 
 4115      50535F54 
ARM GAS  C:\Users\owono\AppData\Local\Temp\ccFLv7mf.s 			page 129


 4115      00
 4116              	.LASF149:
 4117 1cb8 4359424C 		.ascii	"CYBLE_GAP_BD_ADDR_T\000"
 4117      455F4741 
 4117      505F4244 
 4117      5F414444 
 4117      525F5400 
 4118              	.LASF206:
 4119 1ccc 4359424C 		.ascii	"CYBLE_GATT_READ_BLOB_REQ\000"
 4119      455F4741 
 4119      54545F52 
 4119      4541445F 
 4119      424C4F42 
 4120              	.LASF150:
 4121 1ce5 4359424C 		.ascii	"CYBLE_GAP_ADV_MODE_TO\000"
 4121      455F4741 
 4121      505F4144 
 4121      565F4D4F 
 4121      44455F54 
 4122              	.LASF282:
 4123 1cfb 68616E64 		.ascii	"handleValPair\000"
 4123      6C655661 
 4123      6C506169 
 4123      7200
 4124              	.LASF273:
 4125 1d09 636F6E6E 		.ascii	"connHandle\000"
 4125      48616E64 
 4125      6C6500
 4126              	.LASF170:
 4127 1d14 4359424C 		.ascii	"CYBLE_GAP_AUTH_ERROR_PAIRING_NOT_SUPPORTED\000"
 4127      455F4741 
 4127      505F4155 
 4127      54485F45 
 4127      52524F52 
 4128              	.LASF153:
 4129 1d3f 4359424C 		.ascii	"CYBLE_GENERIC_TO\000"
 4129      455F4745 
 4129      4E455249 
 4129      435F544F 
 4129      00
 4130              	.LASF322:
 4131 1d50 6379426C 		.ascii	"cyBle_pendingFlashWrite\000"
 4131      655F7065 
 4131      6E64696E 
 4131      67466C61 
 4131      73685772 
 4132              	.LASF55:
 4133 1d68 4359424C 		.ascii	"CYBLE_EVT_GATTC_FIND_INFO_RSP\000"
 4133      455F4556 
 4133      545F4741 
 4133      5454435F 
 4133      46494E44 
 4134              	.LASF54:
 4135 1d86 4359424C 		.ascii	"CYBLE_EVT_GATTC_READ_BY_TYPE_RSP\000"
 4135      455F4556 
 4135      545F4741 
 4135      5454435F 
ARM GAS  C:\Users\owono\AppData\Local\Temp\ccFLv7mf.s 			page 130


 4135      52454144 
 4136              	.LASF251:
 4137 1da7 4359424C 		.ascii	"CYBLE_GATTS_ERR_OPERATION_FAILED\000"
 4137      455F4741 
 4137      5454535F 
 4137      4552525F 
 4137      4F504552 
 4138              	.LASF326:
 4139 1dc8 6379426C 		.ascii	"cyBle_state\000"
 4139      655F7374 
 4139      61746500 
 4140              	.LASF335:
 4141 1dd4 4379426C 		.ascii	"CyBle_EnableDefaultDevicePrivacy\000"
 4141      655F456E 
 4141      61626C65 
 4141      44656661 
 4141      756C7444 
 4142              	.LASF188:
 4143 1df5 70616972 		.ascii	"pairingProperties\000"
 4143      696E6750 
 4143      726F7065 
 4143      72746965 
 4143      7300
 4144              	.LASF61:
 4145 1e07 4359424C 		.ascii	"CYBLE_EVT_GATTC_WRITE_RSP\000"
 4145      455F4556 
 4145      545F4741 
 4145      5454435F 
 4145      57524954 
 4146              	.LASF294:
 4147 1e21 4359424C 		.ascii	"CYBLE_STATE_DISCONNECTED\000"
 4147      455F5354 
 4147      4154455F 
 4147      44495343 
 4147      4F4E4E45 
 4148              	.LASF311:
 4149 1e3a 6C654D61 		.ascii	"leMask\000"
 4149      736B00
 4150              	.LASF30:
 4151 1e41 4359424C 		.ascii	"CYBLE_EVT_GAPP_ADVERTISEMENT_START_STOP\000"
 4151      455F4556 
 4151      545F4741 
 4151      50505F41 
 4151      44564552 
 4152              	.LASF9:
 4153 1e69 75696E74 		.ascii	"uint8\000"
 4153      3800
 4154              	.LASF321:
 4155 1e6f 6379426C 		.ascii	"cyBle_authInfo\000"
 4155      655F6175 
 4155      7468496E 
 4155      666F00
 4156              	.LASF38:
 4157 1e7e 4359424C 		.ascii	"CYBLE_EVT_GAP_KEYPRESS_NOTIFICATION\000"
 4157      455F4556 
 4157      545F4741 
 4157      505F4B45 
ARM GAS  C:\Users\owono\AppData\Local\Temp\ccFLv7mf.s 			page 131


 4157      59505245 
 4158              	.LASF212:
 4159 1ea2 4359424C 		.ascii	"CYBLE_GATT_WRITE_REQ\000"
 4159      455F4741 
 4159      54545F57 
 4159      52495445 
 4159      5F524551 
 4160              	.LASF2:
 4161 1eb7 73686F72 		.ascii	"short int\000"
 4161      7420696E 
 4161      7400
 4162              	.LASF187:
 4163 1ec1 61757468 		.ascii	"authErr\000"
 4163      45727200 
 4164              	.LASF112:
 4165 1ec9 4359424C 		.ascii	"CYBLE_ERROR_HARDWARE_FAILURE\000"
 4165      455F4552 
 4165      524F525F 
 4165      48415244 
 4165      57415245 
 4166              	.LASF245:
 4167 1ee6 4359424C 		.ascii	"CYBLE_GATT_ERR_CPS_INAPPROPRIATE_CONNECTION_PARAMET"
 4167      455F4741 
 4167      54545F45 
 4167      52525F43 
 4167      50535F49 
 4168 1f19 45525300 		.ascii	"ERS\000"
 4169              	.LASF230:
 4170 1f1d 4359424C 		.ascii	"CYBLE_GATT_ERR_REQUEST_NOT_SUPPORTED\000"
 4170      455F4741 
 4170      54545F45 
 4170      52525F52 
 4170      45515545 
 4171              	.LASF48:
 4172 1f42 4359424C 		.ascii	"CYBLE_EVT_GATTC_ERROR_RSP\000"
 4172      455F4556 
 4172      545F4741 
 4172      5454435F 
 4172      4552524F 
 4173              	.LASF164:
 4174 1f5c 4359424C 		.ascii	"CYBLE_GAP_IOCAP_KEYBOARD_DISPLAY\000"
 4174      455F4741 
 4174      505F494F 
 4174      4341505F 
 4174      4B455942 
 4175              	.LASF295:
 4176 1f7d 4359424C 		.ascii	"CYBLE_STATE_T\000"
 4176      455F5354 
 4176      4154455F 
 4176      5400
 4177              	.LASF76:
 4178 1f8b 4359424C 		.ascii	"CYBLE_EVT_L2CAP_CBFC_CONN_IND\000"
 4178      455F4556 
 4178      545F4C32 
 4178      4341505F 
 4178      43424643 
 4179              	.LASF64:
ARM GAS  C:\Users\owono\AppData\Local\Temp\ccFLv7mf.s 			page 132


 4180 1fa9 4359424C 		.ascii	"CYBLE_EVT_GATTS_EXEC_WRITE_REQ\000"
 4180      455F4556 
 4180      545F4741 
 4180      5454535F 
 4180      45584543 
 4181              	.LASF24:
 4182 1fc8 4359424C 		.ascii	"CYBLE_EVT_GAPC_SCAN_PROGRESS_RESULT\000"
 4182      455F4556 
 4182      545F4741 
 4182      50435F53 
 4182      43414E5F 
 4183              	.LASF263:
 4184 1fec 4359424C 		.ascii	"CYBLE_GATT_ERR_CODE_T\000"
 4184      455F4741 
 4184      54545F45 
 4184      52525F43 
 4184      4F44455F 
 4185              	.LASF287:
 4186 2002 63636364 		.ascii	"cccdCount\000"
 4186      436F756E 
 4186      7400
 4187              	.LASF258:
 4188 200c 4359424C 		.ascii	"CYBLE_GATT_ERR_ANCS_INVALID_PARAMETER\000"
 4188      455F4741 
 4188      54545F45 
 4188      52525F41 
 4188      4E43535F 
 4189              	.LASF98:
 4190 2032 4359424C 		.ascii	"CYBLE_ERROR_GAP_ROLE\000"
 4190      455F4552 
 4190      524F525F 
 4190      4741505F 
 4190      524F4C45 
 4191              	.LASF317:
 4192 2047 6379426C 		.ascii	"cyBle_stackMemoryRam\000"
 4192      655F7374 
 4192      61636B4D 
 4192      656D6F72 
 4192      7952616D 
 4193              	.LASF330:
 4194 205c 6379426C 		.ascii	"cyBle_advertisingIntervalType\000"
 4194      655F6164 
 4194      76657274 
 4194      6973696E 
 4194      67496E74 
 4195              	.LASF45:
 4196 207a 4359424C 		.ascii	"CYBLE_EVT_GAP_SCAN_REQ_RECVD\000"
 4196      455F4556 
 4196      545F4741 
 4196      505F5343 
 4196      414E5F52 
 4197              	.LASF300:
 4198 2097 63656E74 		.ascii	"centralAddrResolutionCharHandle\000"
 4198      72616C41 
 4198      64647252 
 4198      65736F6C 
 4198      7574696F 
ARM GAS  C:\Users\owono\AppData\Local\Temp\ccFLv7mf.s 			page 133


 4199              	.LASF147:
 4200 20b7 62644164 		.ascii	"bdAddr\000"
 4200      647200
 4201              	.LASF255:
 4202 20be 4359424C 		.ascii	"CYBLE_GATT_ERR_ANS_COMMAND_NOT_SUPPORTED\000"
 4202      455F4741 
 4202      54545F45 
 4202      52525F41 
 4202      4E535F43 
 4203              	.LASF331:
 4204 20e7 4379426C 		.ascii	"CyBle_GattsErrorRsp\000"
 4204      655F4761 
 4204      74747345 
 4204      72726F72 
 4204      52737000 
 4205              	.LASF205:
 4206 20fb 4359424C 		.ascii	"CYBLE_GATT_READ_RSP\000"
 4206      455F4741 
 4206      54545F52 
 4206      4541445F 
 4206      52535000 
 4207              	.LASF310:
 4208 210f 62644164 		.ascii	"bdAddrLoc\000"
 4208      64724C6F 
 4208      6300
 4209              	.LASF95:
 4210 2119 4359424C 		.ascii	"CYBLE_ERROR_NO_CONNECTION\000"
 4210      455F4552 
 4210      524F525F 
 4210      4E4F5F43 
 4210      4F4E4E45 
 4211              	.LASF129:
 4212 2133 4359424C 		.ascii	"CYBLE_LL_PWR_LVL_0_DBM\000"
 4212      455F4C4C 
 4212      5F505752 
 4212      5F4C564C 
 4212      5F305F44 
 4213              	.LASF349:
 4214 214a 6D656D63 		.ascii	"memcpy\000"
 4214      707900
 4215              	.LASF133:
 4216 2151 4359424C 		.ascii	"CYBLE_LL_ADV_CH_TYPE\000"
 4216      455F4C4C 
 4216      5F414456 
 4216      5F43485F 
 4216      54595045 
 4217              	.LASF85:
 4218 2166 4359424C 		.ascii	"CYBLE_EVT_LE_PING_AUTH_TIMEOUT\000"
 4218      455F4556 
 4218      545F4C45 
 4218      5F50494E 
 4218      475F4155 
 4219              	.LASF122:
 4220 2185 4359424C 		.ascii	"CYBLE_API_RESULT_T\000"
 4220      455F4150 
 4220      495F5245 
 4220      53554C54 
ARM GAS  C:\Users\owono\AppData\Local\Temp\ccFLv7mf.s 			page 134


 4220      5F5400
 4221              	.LASF324:
 4222 2198 6379426C 		.ascii	"cyBle_attValuesCCCD\000"
 4222      655F6174 
 4222      7456616C 
 4222      75657343 
 4222      43434400 
 4223              	.LASF67:
 4224 21ac 4359424C 		.ascii	"CYBLE_EVT_GATTC_HANDLE_VALUE_IND\000"
 4224      455F4556 
 4224      545F4741 
 4224      5454435F 
 4224      48414E44 
 4225              	.LASF308:
 4226 21cd 6576656E 		.ascii	"eventCode\000"
 4226      74436F64 
 4226      6500
 4227              	.LASF101:
 4228 21d7 4359424C 		.ascii	"CYBLE_ERROR_SEC_FAILED\000"
 4228      455F4552 
 4228      524F525F 
 4228      5345435F 
 4228      4641494C 
 4229              	.LASF22:
 4230 21ee 4359424C 		.ascii	"CYBLE_EVT_STACK_BUSY_STATUS\000"
 4230      455F4556 
 4230      545F5354 
 4230      41434B5F 
 4230      42555359 
 4231              	.LASF192:
 4232 220a 636F6E6E 		.ascii	"connLatency\000"
 4232      4C617465 
 4232      6E637900 
 4233              	.LASF177:
 4234 2216 4359424C 		.ascii	"CYBLE_GAP_AUTH_ERROR_NUMERIC_COMPARISON_FAILED\000"
 4234      455F4741 
 4234      505F4155 
 4234      54485F45 
 4234      52524F52 
 4235              	.LASF161:
 4236 2245 4359424C 		.ascii	"CYBLE_GAP_IOCAP_DISPLAY_YESNO\000"
 4236      455F4741 
 4236      505F494F 
 4236      4341505F 
 4236      44495350 
 4237              	.LASF36:
 4238 2263 4359424C 		.ascii	"CYBLE_EVT_GAP_KEYINFO_EXCHNGE_CMPLT\000"
 4238      455F4556 
 4238      545F4741 
 4238      505F4B45 
 4238      59494E46 
 4239              	.LASF217:
 4240 2287 4359424C 		.ascii	"CYBLE_GATT_EXECUTE_WRITE_REQ\000"
 4240      455F4741 
 4240      54545F45 
 4240      58454355 
 4240      54455F57 
ARM GAS  C:\Users\owono\AppData\Local\Temp\ccFLv7mf.s 			page 135


 4241              	.LASF139:
 4242 22a4 4359424C 		.ascii	"CYBLE_BLESS_PWR_IN_DB_T\000"
 4242      455F424C 
 4242      4553535F 
 4242      5057525F 
 4242      494E5F44 
 4243              	.LASF135:
 4244 22bc 4359424C 		.ascii	"CYBLE_LL_MAX_CH_TYPE\000"
 4244      455F4C4C 
 4244      5F4D4158 
 4244      5F43485F 
 4244      54595045 
 4245              	.LASF73:
 4246 22d1 4359424C 		.ascii	"CYBLE_EVT_L2CAP_CONN_PARAM_UPDATE_REQ\000"
 4246      455F4556 
 4246      545F4C32 
 4246      4341505F 
 4246      434F4E4E 
 4247              	.LASF142:
 4248 22f7 4359424C 		.ascii	"CYBLE_PROTOCOL_REQ_T\000"
 4248      455F5052 
 4248      4F544F43 
 4248      4F4C5F52 
 4248      45515F54 
 4249              	.LASF303:
 4250 230c 67617474 		.ascii	"gattErr\000"
 4250      45727200 
 4251              	.LASF227:
 4252 2314 4359424C 		.ascii	"CYBLE_GATT_ERR_WRITE_NOT_PERMITTED\000"
 4252      455F4741 
 4252      54545F45 
 4252      52525F57 
 4252      52495445 
 4253              	.LASF191:
 4254 2337 636F6E6E 		.ascii	"connIntv\000"
 4254      496E7476 
 4254      00
 4255              	.LASF3:
 4256 2340 73686F72 		.ascii	"short unsigned int\000"
 4256      7420756E 
 4256      7369676E 
 4256      65642069 
 4256      6E7400
 4257              	.LASF239:
 4258 2353 4359424C 		.ascii	"CYBLE_GATT_ERR_INSUFFICIENT_ENCRYPTION\000"
 4258      455F4741 
 4258      54545F45 
 4258      52525F49 
 4258      4E535546 
 4259              	.LASF292:
 4260 237a 4359424C 		.ascii	"CYBLE_STATE_CONNECTED\000"
 4260      455F5354 
 4260      4154455F 
 4260      434F4E4E 
 4260      45435445 
 4261              	.LASF268:
 4262 2390 61637475 		.ascii	"actualLen\000"
ARM GAS  C:\Users\owono\AppData\Local\Temp\ccFLv7mf.s 			page 136


 4262      616C4C65 
 4262      6E00
 4263              	.LASF210:
 4264 239a 4359424C 		.ascii	"CYBLE_GATT_READ_BY_GROUP_REQ\000"
 4264      455F4741 
 4264      54545F52 
 4264      4541445F 
 4264      42595F47 
 4265              	.LASF266:
 4266 23b7 61747449 		.ascii	"attId\000"
 4266      6400
 4267              	.LASF91:
 4268 23bd 4359424C 		.ascii	"CYBLE_ERROR_INVALID_OPERATION\000"
 4268      455F4552 
 4268      524F525F 
 4268      494E5641 
 4268      4C49445F 
 4269              	.LASF21:
 4270 23db 4359424C 		.ascii	"CYBLE_EVT_HCI_STATUS\000"
 4270      455F4556 
 4270      545F4843 
 4270      495F5354 
 4270      41545553 
 4271              	.LASF50:
 4272 23f0 4359424C 		.ascii	"CYBLE_EVT_GATT_DISCONNECT_IND\000"
 4272      455F4556 
 4272      545F4741 
 4272      54545F44 
 4272      4953434F 
 4273              	.LASF193:
 4274 240e 73757065 		.ascii	"supervisionTO\000"
 4274      72766973 
 4274      696F6E54 
 4274      4F00
 4275              	.LASF152:
 4276 241c 4359424C 		.ascii	"CYBLE_GATT_RSP_TO\000"
 4276      455F4741 
 4276      54545F52 
 4276      53505F54 
 4276      4F00
 4277              	.LASF83:
 4278 242e 4359424C 		.ascii	"CYBLE_EVT_L2CAP_CBFC_DATA_WRITE_IND\000"
 4278      455F4556 
 4278      545F4C32 
 4278      4341505F 
 4278      43424643 
 4279              	.LASF72:
 4280 2452 4359424C 		.ascii	"CYBLE_EVT_GATTC_LONG_PROCEDURE_END\000"
 4280      455F4556 
 4280      545F4741 
 4280      5454435F 
 4280      4C4F4E47 
 4281              	.LASF32:
 4282 2475 4359424C 		.ascii	"CYBLE_EVT_GAP_DEVICE_DISCONNECTED\000"
 4282      455F4556 
 4282      545F4741 
 4282      505F4445 
ARM GAS  C:\Users\owono\AppData\Local\Temp\ccFLv7mf.s 			page 137


 4282      56494345 
 4283              	.LASF68:
 4284 2497 4359424C 		.ascii	"CYBLE_EVT_GATTS_HANDLE_VALUE_CNF\000"
 4284      455F4556 
 4284      545F4741 
 4284      5454535F 
 4284      48414E44 
 4285              	.LASF10:
 4286 24b8 75696E74 		.ascii	"uint16\000"
 4286      313600
 4287              	.LASF99:
 4288 24bf 4359424C 		.ascii	"CYBLE_ERROR_TX_POWER_READ\000"
 4288      455F4552 
 4288      524F525F 
 4288      54585F50 
 4288      4F574552 
 4289              		.ident	"GCC: (GNU Tools for ARM Embedded Processors) 5.4.1 20160609 (release) [ARM/embedded-5-bran
